LX51 LINKER/LOCATER V4.66.87.0                                                          01/09/2018  16:51:33  PAGE 1


LX51 LINKER/LOCATER V4.66.87.0, INVOKED BY:
C:\KEIL_V5\C51\BIN\LX51.EXE OUTPUT\A_L_20_REV16_77.OBJ TO OUTPUT\A_L_20_REV16_77.OMF PAGEWIDTH (120) PAGELENGTH (65)


CPU MODE:     8051 MODE


INPUT MODULES INCLUDED:
  OUTPUT\A_L_20_REV16_77.OBJ (BLHELI_S)
         COMMENT TYPE 0: AX51 V3.15.3.0


ACTIVE MEMORY CLASSES OF MODULE:  OUTPUT\A_L_20_REV16_77.OMF (BLHELI_S)

BASE        START       END         USED      MEMORY CLASS
==========================================================
C:000000H   C:000000H   C:00FFFFH   0016BDH   CODE
I:000000H   I:000000H   I:00007FH   00005AH   DATA
I:000000H   I:000000H   I:0000FFH   000057H   IDATA


MEMORY MAP OF MODULE:  OUTPUT\A_L_20_REV16_77.OMF (BLHELI_S)


START     STOP      LENGTH    ALIGN  RELOC    MEMORY CLASS   SEGMENT NAME
=========================================================================

* * * * * * * * * * *   D A T A   M E M O R Y   * * * * * * * * * * * * *
000000H   000007H   000008H   ---    AT..     DATA           "REG BANK 0"
000008H   00001FH   000018H   ---    ---      **GAP**
000020H   000027H   000008H   ---    OFFS..   DATA           ?DT?BLHELI_S?3
*** OVERLAP ***
000020H   00002AH   00000BH   ---    OFFS..   DATA           ?DT?BLHELI_S?17
00002BH   00002FH   000005H   ---    ---      **GAP**
000030H   00006EH   00003FH   ---    OFFS..   DATA           ?DT?BLHELI_S?4
00006FH   00007FH   000011H   ---    ---      **GAP**
000080H   0000A6H   000027H   ---    OFFS..   IDATA          ?ID?BLHELI_S?5
0000A7H   0000CFH   000029H   ---    ---      **GAP**
0000D0H   0000FFH   000030H   ---    OFFS..   IDATA          ?ID?BLHELI_S?6

* * * * * * * * * * *   C O D E   M E M O R Y   * * * * * * * * * * * * *
000000H   000002H   000003H   ---    OFFS..   CODE           ?CO?BLHELI_S?9
000003H   000005H   000003H   ---    OFFS..   CODE           ?CO?BLHELI_S?10
000006H   000012H   00000DH   ---    ---      **GAP**
000013H   000015H   000003H   ---    OFFS..   CODE           ?CO?BLHELI_S?11
000016H   00001AH   000005H   ---    ---      **GAP**
00001BH   00001DH   000003H   ---    OFFS..   CODE           ?CO?BLHELI_S?12
00001EH   00002AH   00000DH   ---    ---      **GAP**
00002BH   00002DH   000003H   ---    OFFS..   CODE           ?CO?BLHELI_S?13
00002EH   00005AH   00002DH   ---    ---      **GAP**
00005BH   00005DH   000003H   ---    OFFS..   CODE           ?CO?BLHELI_S?14
00005EH   000072H   000015H   ---    ---      **GAP**
000073H   000075H   000003H   ---    OFFS..   CODE           ?CO?BLHELI_S?15
000076H   00007FH   00000AH   ---    ---      **GAP**
000080H   0014D4H   001455H   ---    OFFS..   CODE           ?CO?BLHELI_S?16
0014D5H   0019FCH   000528H   ---    ---      **GAP**
0019FDH   0019FFH   000003H   ---    OFFS..   CODE           ?CO?BLHELI_S?19
001A00H   001A29H   00002AH   ---    OFFS..   CODE           ?CO?BLHELI_S?7
001A2AH   001A3FH   000016H   ---    ---      **GAP**
001A40H   001A4FH   000010H   ---    OFFS..   CODE           ?CO?BLHELI_S?1
001A50H   001A5FH   000010H   ---    OFFS..   CODE           ?CO?BLHELI_S?2
001A60H   001A6FH   000010H   ---    OFFS..   CODE           ?CO?BLHELI_S?8
001A70H   001BFFH   000190H   ---    ---      **GAP**
LX51 LINKER/LOCATER V4.66.87.0                                                        01/09/2018  16:51:33  PAGE 2


001C00H   001DF5H   0001F6H   ---    OFFS..   CODE           ?CO?BLHELI_S?18



PUBLIC SYMBOLS OF MODULE:  OUTPUT\A_L_20_REV16_77.OMF (BLHELI_S)


      VALUE       CLASS    TYPE      PUBLIC SYMBOL NAME
      =================================================
      00000000H   NUMBER   ---       ?C?CODESEG
      00000000H   NUMBER   ---       ?C?XDATASEG
*SFR* 000000E0H   DATA     BYTE      ACC
*SFR* 000000E0H.0 DATA     BIT       ACC_ACC0
*SFR* 000000E0H.1 DATA     BIT       ACC_ACC1
*SFR* 000000E0H.2 DATA     BIT       ACC_ACC2
*SFR* 000000E0H.3 DATA     BIT       ACC_ACC3
*SFR* 000000E0H.4 DATA     BIT       ACC_ACC4
*SFR* 000000E0H.5 DATA     BIT       ACC_ACC5
*SFR* 000000E0H.6 DATA     BIT       ACC_ACC6
*SFR* 000000E0H.7 DATA     BIT       ACC_ACC7
*SFR* 000000BDH   DATA     BYTE      ADC0
*SFR* 000000B3H   DATA     BYTE      ADC0AC
*SFR* 000000BCH   DATA     BYTE      ADC0CF
*SFR* 000000E8H   DATA     BYTE      ADC0CN0
*SFR* 000000E8H.6 DATA     BIT       ADC0CN0_ADBMEN
*SFR* 000000E8H.4 DATA     BIT       ADC0CN0_ADBUSY
*SFR* 000000E8H.0 DATA     BIT       ADC0CN0_ADCM0
*SFR* 000000E8H.1 DATA     BIT       ADC0CN0_ADCM1
*SFR* 000000E8H.2 DATA     BIT       ADC0CN0_ADCM2
*SFR* 000000E8H.7 DATA     BIT       ADC0CN0_ADEN
*SFR* 000000E8H.5 DATA     BIT       ADC0CN0_ADINT
*SFR* 000000E8H.3 DATA     BIT       ADC0CN0_ADWINT
*SFR* 000000B2H   DATA     BYTE      ADC0CN1
*SFR* 000000C3H   DATA     BYTE      ADC0GT
*SFR* 000000C4H   DATA     BYTE      ADC0GTH
*SFR* 000000C3H   DATA     BYTE      ADC0GTL
*SFR* 000000BEH   DATA     BYTE      ADC0H
*SFR* 000000BDH   DATA     BYTE      ADC0L
*SFR* 000000C5H   DATA     BYTE      ADC0LT
*SFR* 000000C6H   DATA     BYTE      ADC0LTH
*SFR* 000000C5H   DATA     BYTE      ADC0LTL
*SFR* 000000BBH   DATA     BYTE      ADC0MX
*SFR* 000000DFH   DATA     BYTE      ADC0PWR
*SFR* 000000B9H   DATA     BYTE      ADC0TK
*SFR* 000000F0H   DATA     BYTE      B
*SFR* 000000F0H.0 DATA     BIT       B_B0
*SFR* 000000F0H.1 DATA     BIT       B_B1
*SFR* 000000F0H.2 DATA     BIT       B_B2
*SFR* 000000F0H.3 DATA     BIT       B_B3
*SFR* 000000F0H.4 DATA     BIT       B_B4
*SFR* 000000F0H.5 DATA     BIT       B_B5
*SFR* 000000F0H.6 DATA     BIT       B_B6
*SFR* 000000F0H.7 DATA     BIT       B_B7
*SFR* 0000008EH   DATA     BYTE      CKCON0
*SFR* 000000A9H   DATA     BYTE      CLKSEL
*SFR* 0000009BH   DATA     BYTE      CMP0CN0
*SFR* 0000009DH   DATA     BYTE      CMP0MD
*SFR* 0000009FH   DATA     BYTE      CMP0MX
*SFR* 000000BFH   DATA     BYTE      CMP1CN0
*SFR* 000000ABH   DATA     BYTE      CMP1MD
*SFR* 000000AAH   DATA     BYTE      CMP1MX
*SFR* 000000D2H   DATA     BYTE      CRC0AUTO
LX51 LINKER/LOCATER V4.66.87.0                                                        01/09/2018  16:51:33  PAGE 3


*SFR* 000000CEH   DATA     BYTE      CRC0CN0
*SFR* 000000D3H   DATA     BYTE      CRC0CNT
*SFR* 000000DEH   DATA     BYTE      CRC0DAT
*SFR* 000000CFH   DATA     BYTE      CRC0FLIP
*SFR* 000000DDH   DATA     BYTE      CRC0IN
*SFR* 000000ADH   DATA     BYTE      DERIVID
*SFR* 000000B5H   DATA     BYTE      DEVICEID
*SFR* 00000082H   DATA     BYTE      DP
*SFR* 00000083H   DATA     BYTE      DPH
*SFR* 00000082H   DATA     BYTE      DPL
*SFR* 000000E6H   DATA     BYTE      EIE1
*SFR* 000000F3H   DATA     BYTE      EIP1
*SFR* 000000B7H   DATA     BYTE      FLKEY
*SFR* 000000C7H   DATA     BYTE      HFO0CAL
*SFR* 000000A8H   DATA     BYTE      IE
*SFR* 000000A8H.7 DATA     BIT       IE_EA
*SFR* 000000A8H.4 DATA     BIT       IE_ES0
*SFR* 000000A8H.6 DATA     BIT       IE_ESPI0
*SFR* 000000A8H.1 DATA     BIT       IE_ET0
*SFR* 000000A8H.3 DATA     BIT       IE_ET1
*SFR* 000000A8H.5 DATA     BIT       IE_ET2
*SFR* 000000A8H.0 DATA     BIT       IE_EX0
*SFR* 000000A8H.2 DATA     BIT       IE_EX1
*SFR* 000000B8H   DATA     BYTE      IP
*SFR* 000000B8H.4 DATA     BIT       IP_PS0
*SFR* 000000B8H.6 DATA     BIT       IP_PSPI0
*SFR* 000000B8H.1 DATA     BIT       IP_PT0
*SFR* 000000B8H.3 DATA     BIT       IP_PT1
*SFR* 000000B8H.5 DATA     BIT       IP_PT2
*SFR* 000000B8H.0 DATA     BIT       IP_PX0
*SFR* 000000B8H.2 DATA     BIT       IP_PX1
*SFR* 000000E4H   DATA     BYTE      IT01CF
*SFR* 000000B1H   DATA     BYTE      LFO0CN
*SFR* 00000080H   DATA     BYTE      P0
*SFR* 00000080H.0 DATA     BIT       P0_B0
*SFR* 00000080H.1 DATA     BIT       P0_B1
*SFR* 00000080H.2 DATA     BIT       P0_B2
*SFR* 00000080H.3 DATA     BIT       P0_B3
*SFR* 00000080H.4 DATA     BIT       P0_B4
*SFR* 00000080H.5 DATA     BIT       P0_B5
*SFR* 00000080H.6 DATA     BIT       P0_B6
*SFR* 00000080H.7 DATA     BIT       P0_B7
*SFR* 000000FEH   DATA     BYTE      P0MASK
*SFR* 000000FDH   DATA     BYTE      P0MAT
*SFR* 000000F1H   DATA     BYTE      P0MDIN
*SFR* 000000A4H   DATA     BYTE      P0MDOUT
*SFR* 000000D4H   DATA     BYTE      P0SKIP
*SFR* 00000090H   DATA     BYTE      P1
*SFR* 00000090H.0 DATA     BIT       P1_B0
*SFR* 00000090H.1 DATA     BIT       P1_B1
*SFR* 00000090H.2 DATA     BIT       P1_B2
*SFR* 00000090H.3 DATA     BIT       P1_B3
*SFR* 00000090H.4 DATA     BIT       P1_B4
*SFR* 00000090H.5 DATA     BIT       P1_B5
*SFR* 00000090H.6 DATA     BIT       P1_B6
*SFR* 00000090H.7 DATA     BIT       P1_B7
*SFR* 000000EEH   DATA     BYTE      P1MASK
*SFR* 000000EDH   DATA     BYTE      P1MAT
*SFR* 000000F2H   DATA     BYTE      P1MDIN
*SFR* 000000A5H   DATA     BYTE      P1MDOUT
*SFR* 000000D5H   DATA     BYTE      P1SKIP
*SFR* 000000A0H   DATA     BYTE      P2
LX51 LINKER/LOCATER V4.66.87.0                                                        01/09/2018  16:51:33  PAGE 4


*SFR* 000000A0H.0 DATA     BIT       P2_B0
*SFR* 000000A0H.1 DATA     BIT       P2_B1
*SFR* 000000A6H   DATA     BYTE      P2MDOUT
*SFR* 000000F9H   DATA     BYTE      PCA0
*SFR* 0000009EH   DATA     BYTE      PCA0CENT
*SFR* 0000009CH   DATA     BYTE      PCA0CLR
*SFR* 000000D8H   DATA     BYTE      PCA0CN0
*SFR* 000000D8H.0 DATA     BIT       PCA0CN0_CCF0
*SFR* 000000D8H.1 DATA     BIT       PCA0CN0_CCF1
*SFR* 000000D8H.2 DATA     BIT       PCA0CN0_CCF2
*SFR* 000000D8H.7 DATA     BIT       PCA0CN0_CF
*SFR* 000000D8H.6 DATA     BIT       PCA0CN0_CR
*SFR* 000000FBH   DATA     BYTE      PCA0CP0
*SFR* 000000E9H   DATA     BYTE      PCA0CP1
*SFR* 000000EBH   DATA     BYTE      PCA0CP2
*SFR* 000000FCH   DATA     BYTE      PCA0CPH0
*SFR* 000000EAH   DATA     BYTE      PCA0CPH1
*SFR* 000000ECH   DATA     BYTE      PCA0CPH2
*SFR* 000000FBH   DATA     BYTE      PCA0CPL0
*SFR* 000000E9H   DATA     BYTE      PCA0CPL1
*SFR* 000000EBH   DATA     BYTE      PCA0CPL2
*SFR* 000000DAH   DATA     BYTE      PCA0CPM0
*SFR* 000000DBH   DATA     BYTE      PCA0CPM1
*SFR* 000000DCH   DATA     BYTE      PCA0CPM2
*SFR* 000000FAH   DATA     BYTE      PCA0H
*SFR* 000000F9H   DATA     BYTE      PCA0L
*SFR* 000000D9H   DATA     BYTE      PCA0MD
*SFR* 00000096H   DATA     BYTE      PCA0POL
*SFR* 000000F7H   DATA     BYTE      PCA0PWM
*SFR* 00000087H   DATA     BYTE      PCON0
*SFR* 000000F6H   DATA     BYTE      PRTDRV
*SFR* 0000008FH   DATA     BYTE      PSCTL
*SFR* 000000D0H   DATA     BYTE      PSW
*SFR* 000000D0H.6 DATA     BIT       PSW_AC
*SFR* 000000D0H.7 DATA     BIT       PSW_CY
*SFR* 000000D0H.5 DATA     BIT       PSW_F0
*SFR* 000000D0H.1 DATA     BIT       PSW_F1
*SFR* 000000D0H.2 DATA     BIT       PSW_OV
*SFR* 000000D0H.0 DATA     BIT       PSW_PARITY
*SFR* 000000D0H.3 DATA     BIT       PSW_RS0
*SFR* 000000D0H.4 DATA     BIT       PSW_RS1
*SFR* 000000D1H   DATA     BYTE      REF0CN
*SFR* 000000C9H   DATA     BYTE      REG0CN
*SFR* 000000B6H   DATA     BYTE      REVID
*SFR* 000000EFH   DATA     BYTE      RSTSRC
*SFR* 00000099H   DATA     BYTE      SBUF0
*SFR* 00000098H   DATA     BYTE      SCON0
*SFR* 00000098H.5 DATA     BIT       SCON0_MCE
*SFR* 00000098H.2 DATA     BIT       SCON0_RB8
*SFR* 00000098H.4 DATA     BIT       SCON0_REN
*SFR* 00000098H.0 DATA     BIT       SCON0_RI
*SFR* 00000098H.7 DATA     BIT       SCON0_SMODE
*SFR* 00000098H.3 DATA     BIT       SCON0_TB8
*SFR* 00000098H.1 DATA     BIT       SCON0_TI
*SFR* 000000D6H   DATA     BYTE      SMB0ADM
*SFR* 000000D7H   DATA     BYTE      SMB0ADR
*SFR* 000000C1H   DATA     BYTE      SMB0CF
*SFR* 000000C0H   DATA     BYTE      SMB0CN0
*SFR* 000000C0H.1 DATA     BIT       SMB0CN0_ACK
*SFR* 000000C0H.3 DATA     BIT       SMB0CN0_ACKRQ
*SFR* 000000C0H.2 DATA     BIT       SMB0CN0_ARBLOST
*SFR* 000000C0H.7 DATA     BIT       SMB0CN0_MASTER
LX51 LINKER/LOCATER V4.66.87.0                                                        01/09/2018  16:51:33  PAGE 5


*SFR* 000000C0H.0 DATA     BIT       SMB0CN0_SI
*SFR* 000000C0H.5 DATA     BIT       SMB0CN0_STA
*SFR* 000000C0H.4 DATA     BIT       SMB0CN0_STO
*SFR* 000000C0H.6 DATA     BIT       SMB0CN0_TXMODE
*SFR* 000000C2H   DATA     BYTE      SMB0DAT
*SFR* 000000ACH   DATA     BYTE      SMB0TC
*SFR* 00000081H   DATA     BYTE      SP
*SFR* 000000A1H   DATA     BYTE      SPI0CFG
*SFR* 000000A2H   DATA     BYTE      SPI0CKR
*SFR* 000000F8H   DATA     BYTE      SPI0CN0
*SFR* 000000F8H.5 DATA     BIT       SPI0CN0_MODF
*SFR* 000000F8H.2 DATA     BIT       SPI0CN0_NSSMD0
*SFR* 000000F8H.3 DATA     BIT       SPI0CN0_NSSMD1
*SFR* 000000F8H.4 DATA     BIT       SPI0CN0_RXOVRN
*SFR* 000000F8H.0 DATA     BIT       SPI0CN0_SPIEN
*SFR* 000000F8H.7 DATA     BIT       SPI0CN0_SPIF
*SFR* 000000F8H.1 DATA     BIT       SPI0CN0_TXBMT
*SFR* 000000F8H.6 DATA     BIT       SPI0CN0_WCOL
*SFR* 000000A3H   DATA     BYTE      SPI0DAT
*SFR* 00000088H   DATA     BYTE      TCON
*SFR* 00000088H.1 DATA     BIT       TCON_IE0
*SFR* 00000088H.3 DATA     BIT       TCON_IE1
*SFR* 00000088H.0 DATA     BIT       TCON_IT0
*SFR* 00000088H.2 DATA     BIT       TCON_IT1
*SFR* 00000088H.5 DATA     BIT       TCON_TF0
*SFR* 00000088H.7 DATA     BIT       TCON_TF1
*SFR* 00000088H.4 DATA     BIT       TCON_TR0
*SFR* 00000088H.6 DATA     BIT       TCON_TR1
*SFR* 0000008CH   DATA     BYTE      TH0
*SFR* 0000008DH   DATA     BYTE      TH1
*SFR* 0000008AH   DATA     BYTE      TL0
*SFR* 0000008BH   DATA     BYTE      TL1
*SFR* 00000089H   DATA     BYTE      TMOD
*SFR* 000000CCH   DATA     BYTE      TMR2
*SFR* 000000C8H   DATA     BYTE      TMR2CN0
*SFR* 000000C8H.3 DATA     BIT       TMR2CN0_T2SPLIT
*SFR* 000000C8H.0 DATA     BIT       TMR2CN0_T2XCLK
*SFR* 000000C8H.4 DATA     BIT       TMR2CN0_TF2CEN
*SFR* 000000C8H.7 DATA     BIT       TMR2CN0_TF2H
*SFR* 000000C8H.6 DATA     BIT       TMR2CN0_TF2L
*SFR* 000000C8H.5 DATA     BIT       TMR2CN0_TF2LEN
*SFR* 000000C8H.2 DATA     BIT       TMR2CN0_TR2
*SFR* 000000CDH   DATA     BYTE      TMR2H
*SFR* 000000CCH   DATA     BYTE      TMR2L
*SFR* 000000CAH   DATA     BYTE      TMR2RL
*SFR* 000000CBH   DATA     BYTE      TMR2RLH
*SFR* 000000CAH   DATA     BYTE      TMR2RLL
*SFR* 00000094H   DATA     BYTE      TMR3
*SFR* 00000091H   DATA     BYTE      TMR3CN0
*SFR* 00000095H   DATA     BYTE      TMR3H
*SFR* 00000094H   DATA     BYTE      TMR3L
*SFR* 00000092H   DATA     BYTE      TMR3RL
*SFR* 00000093H   DATA     BYTE      TMR3RLH
*SFR* 00000092H   DATA     BYTE      TMR3RLL
*SFR* 000000FFH   DATA     BYTE      VDM0CN
*SFR* 00000097H   DATA     BYTE      WDTCN
*SFR* 000000E1H   DATA     BYTE      XBR0
*SFR* 000000E2H   DATA     BYTE      XBR1
*SFR* 000000E3H   DATA     BYTE      XBR2



LX51 LINKER/LOCATER V4.66.87.0                                                        01/09/2018  16:51:33  PAGE 6


SYMBOL TABLE OF MODULE:  OUTPUT\A_L_20_REV16_77.OMF (BLHELI_S)

      VALUE       REP       CLASS    TYPE      SYMBOL NAME
      ====================================================
      ---         MODULE    ---      ---       BLHELI_S
      000000E0H   SFRSYM    DATA     BYTE      ACC
      000000E0H.0 SFRSYM    DATA     BIT       ACC_ACC0
      000000E0H.1 SFRSYM    DATA     BIT       ACC_ACC1
      000000E0H.2 SFRSYM    DATA     BIT       ACC_ACC2
      000000E0H.3 SFRSYM    DATA     BIT       ACC_ACC3
      000000E0H.4 SFRSYM    DATA     BIT       ACC_ACC4
      000000E0H.5 SFRSYM    DATA     BIT       ACC_ACC5
      000000E0H.6 SFRSYM    DATA     BIT       ACC_ACC6
      000000E0H.7 SFRSYM    DATA     BIT       ACC_ACC7
      000000BDH   SFRSYM    DATA     BYTE      ADC0
      000000B3H   SFRSYM    DATA     BYTE      ADC0AC
      000000BCH   SFRSYM    DATA     BYTE      ADC0CF
      000000E8H   SFRSYM    DATA     BYTE      ADC0CN0
      000000E8H.6 SFRSYM    DATA     BIT       ADC0CN0_ADBMEN
      000000E8H.4 SFRSYM    DATA     BIT       ADC0CN0_ADBUSY
      000000E8H.0 SFRSYM    DATA     BIT       ADC0CN0_ADCM0
      000000E8H.1 SFRSYM    DATA     BIT       ADC0CN0_ADCM1
      000000E8H.2 SFRSYM    DATA     BIT       ADC0CN0_ADCM2
      000000E8H.7 SFRSYM    DATA     BIT       ADC0CN0_ADEN
      000000E8H.5 SFRSYM    DATA     BIT       ADC0CN0_ADINT
      000000E8H.3 SFRSYM    DATA     BIT       ADC0CN0_ADWINT
      000000B2H   SFRSYM    DATA     BYTE      ADC0CN1
      000000C3H   SFRSYM    DATA     BYTE      ADC0GT
      000000C4H   SFRSYM    DATA     BYTE      ADC0GTH
      000000C3H   SFRSYM    DATA     BYTE      ADC0GTL
      000000BEH   SFRSYM    DATA     BYTE      ADC0H
      000000BDH   SFRSYM    DATA     BYTE      ADC0L
      000000C5H   SFRSYM    DATA     BYTE      ADC0LT
      000000C6H   SFRSYM    DATA     BYTE      ADC0LTH
      000000C5H   SFRSYM    DATA     BYTE      ADC0LTL
      000000BBH   SFRSYM    DATA     BYTE      ADC0MX
      000000DFH   SFRSYM    DATA     BYTE      ADC0PWR
      000000B9H   SFRSYM    DATA     BYTE      ADC0TK
      000000F0H   SFRSYM    DATA     BYTE      B
      000000F0H.0 SFRSYM    DATA     BIT       B_B0
      000000F0H.1 SFRSYM    DATA     BIT       B_B1
      000000F0H.2 SFRSYM    DATA     BIT       B_B2
      000000F0H.3 SFRSYM    DATA     BIT       B_B3
      000000F0H.4 SFRSYM    DATA     BIT       B_B4
      000000F0H.5 SFRSYM    DATA     BIT       B_B5
      000000F0H.6 SFRSYM    DATA     BIT       B_B6
      000000F0H.7 SFRSYM    DATA     BIT       B_B7
      0000008EH   SFRSYM    DATA     BYTE      CKCON0
      000000A9H   SFRSYM    DATA     BYTE      CLKSEL
      0000009BH   SFRSYM    DATA     BYTE      CMP0CN0
      0000009DH   SFRSYM    DATA     BYTE      CMP0MD
      0000009FH   SFRSYM    DATA     BYTE      CMP0MX
      000000BFH   SFRSYM    DATA     BYTE      CMP1CN0
      000000ABH   SFRSYM    DATA     BYTE      CMP1MD
      000000AAH   SFRSYM    DATA     BYTE      CMP1MX
      000000D2H   SFRSYM    DATA     BYTE      CRC0AUTO
      000000CEH   SFRSYM    DATA     BYTE      CRC0CN0
      000000D3H   SFRSYM    DATA     BYTE      CRC0CNT
      000000DEH   SFRSYM    DATA     BYTE      CRC0DAT
      000000CFH   SFRSYM    DATA     BYTE      CRC0FLIP
      000000DDH   SFRSYM    DATA     BYTE      CRC0IN
      000000ADH   SFRSYM    DATA     BYTE      DERIVID
LX51 LINKER/LOCATER V4.66.87.0                                                        01/09/2018  16:51:33  PAGE 7


      000000B5H   SFRSYM    DATA     BYTE      DEVICEID
      00000082H   SFRSYM    DATA     BYTE      DP
      00000083H   SFRSYM    DATA     BYTE      DPH
      00000082H   SFRSYM    DATA     BYTE      DPL
      000000E6H   SFRSYM    DATA     BYTE      EIE1
      000000F3H   SFRSYM    DATA     BYTE      EIP1
      000000B7H   SFRSYM    DATA     BYTE      FLKEY
      000000C7H   SFRSYM    DATA     BYTE      HFO0CAL
      000000A8H   SFRSYM    DATA     BYTE      IE
      000000A8H.7 SFRSYM    DATA     BIT       IE_EA
      000000A8H.4 SFRSYM    DATA     BIT       IE_ES0
      000000A8H.6 SFRSYM    DATA     BIT       IE_ESPI0
      000000A8H.1 SFRSYM    DATA     BIT       IE_ET0
      000000A8H.3 SFRSYM    DATA     BIT       IE_ET1
      000000A8H.5 SFRSYM    DATA     BIT       IE_ET2
      000000A8H.0 SFRSYM    DATA     BIT       IE_EX0
      000000A8H.2 SFRSYM    DATA     BIT       IE_EX1
      000000B8H   SFRSYM    DATA     BYTE      IP
      000000B8H.4 SFRSYM    DATA     BIT       IP_PS0
      000000B8H.6 SFRSYM    DATA     BIT       IP_PSPI0
      000000B8H.1 SFRSYM    DATA     BIT       IP_PT0
      000000B8H.3 SFRSYM    DATA     BIT       IP_PT1
      000000B8H.5 SFRSYM    DATA     BIT       IP_PT2
      000000B8H.0 SFRSYM    DATA     BIT       IP_PX0
      000000B8H.2 SFRSYM    DATA     BIT       IP_PX1
      000000E4H   SFRSYM    DATA     BYTE      IT01CF
      000000B1H   SFRSYM    DATA     BYTE      LFO0CN
      00000080H   SFRSYM    DATA     BYTE      P0
      00000080H.0 SFRSYM    DATA     BIT       P0_B0
      00000080H.1 SFRSYM    DATA     BIT       P0_B1
      00000080H.2 SFRSYM    DATA     BIT       P0_B2
      00000080H.3 SFRSYM    DATA     BIT       P0_B3
      00000080H.4 SFRSYM    DATA     BIT       P0_B4
      00000080H.5 SFRSYM    DATA     BIT       P0_B5
      00000080H.6 SFRSYM    DATA     BIT       P0_B6
      00000080H.7 SFRSYM    DATA     BIT       P0_B7
      000000FEH   SFRSYM    DATA     BYTE      P0MASK
      000000FDH   SFRSYM    DATA     BYTE      P0MAT
      000000F1H   SFRSYM    DATA     BYTE      P0MDIN
      000000A4H   SFRSYM    DATA     BYTE      P0MDOUT
      000000D4H   SFRSYM    DATA     BYTE      P0SKIP
      00000090H   SFRSYM    DATA     BYTE      P1
      00000090H.0 SFRSYM    DATA     BIT       P1_B0
      00000090H.1 SFRSYM    DATA     BIT       P1_B1
      00000090H.2 SFRSYM    DATA     BIT       P1_B2
      00000090H.3 SFRSYM    DATA     BIT       P1_B3
      00000090H.4 SFRSYM    DATA     BIT       P1_B4
      00000090H.5 SFRSYM    DATA     BIT       P1_B5
      00000090H.6 SFRSYM    DATA     BIT       P1_B6
      00000090H.7 SFRSYM    DATA     BIT       P1_B7
      000000EEH   SFRSYM    DATA     BYTE      P1MASK
      000000EDH   SFRSYM    DATA     BYTE      P1MAT
      000000F2H   SFRSYM    DATA     BYTE      P1MDIN
      000000A5H   SFRSYM    DATA     BYTE      P1MDOUT
      000000D5H   SFRSYM    DATA     BYTE      P1SKIP
      000000A0H   SFRSYM    DATA     BYTE      P2
      000000A0H.0 SFRSYM    DATA     BIT       P2_B0
      000000A0H.1 SFRSYM    DATA     BIT       P2_B1
      000000A6H   SFRSYM    DATA     BYTE      P2MDOUT
      000000F9H   SFRSYM    DATA     BYTE      PCA0
      0000009EH   SFRSYM    DATA     BYTE      PCA0CENT
      0000009CH   SFRSYM    DATA     BYTE      PCA0CLR
LX51 LINKER/LOCATER V4.66.87.0                                                        01/09/2018  16:51:33  PAGE 8


      000000D8H   SFRSYM    DATA     BYTE      PCA0CN0
      000000D8H.0 SFRSYM    DATA     BIT       PCA0CN0_CCF0
      000000D8H.1 SFRSYM    DATA     BIT       PCA0CN0_CCF1
      000000D8H.2 SFRSYM    DATA     BIT       PCA0CN0_CCF2
      000000D8H.7 SFRSYM    DATA     BIT       PCA0CN0_CF
      000000D8H.6 SFRSYM    DATA     BIT       PCA0CN0_CR
      000000FBH   SFRSYM    DATA     BYTE      PCA0CP0
      000000E9H   SFRSYM    DATA     BYTE      PCA0CP1
      000000EBH   SFRSYM    DATA     BYTE      PCA0CP2
      000000FCH   SFRSYM    DATA     BYTE      PCA0CPH0
      000000EAH   SFRSYM    DATA     BYTE      PCA0CPH1
      000000ECH   SFRSYM    DATA     BYTE      PCA0CPH2
      000000FBH   SFRSYM    DATA     BYTE      PCA0CPL0
      000000E9H   SFRSYM    DATA     BYTE      PCA0CPL1
      000000EBH   SFRSYM    DATA     BYTE      PCA0CPL2
      000000DAH   SFRSYM    DATA     BYTE      PCA0CPM0
      000000DBH   SFRSYM    DATA     BYTE      PCA0CPM1
      000000DCH   SFRSYM    DATA     BYTE      PCA0CPM2
      000000FAH   SFRSYM    DATA     BYTE      PCA0H
      000000F9H   SFRSYM    DATA     BYTE      PCA0L
      000000D9H   SFRSYM    DATA     BYTE      PCA0MD
      00000096H   SFRSYM    DATA     BYTE      PCA0POL
      000000F7H   SFRSYM    DATA     BYTE      PCA0PWM
      00000087H   SFRSYM    DATA     BYTE      PCON0
      000000F6H   SFRSYM    DATA     BYTE      PRTDRV
      0000008FH   SFRSYM    DATA     BYTE      PSCTL
      000000D0H   SFRSYM    DATA     BYTE      PSW
      000000D0H.6 SFRSYM    DATA     BIT       PSW_AC
      000000D0H.7 SFRSYM    DATA     BIT       PSW_CY
      000000D0H.5 SFRSYM    DATA     BIT       PSW_F0
      000000D0H.1 SFRSYM    DATA     BIT       PSW_F1
      000000D0H.2 SFRSYM    DATA     BIT       PSW_OV
      000000D0H.0 SFRSYM    DATA     BIT       PSW_PARITY
      000000D0H.3 SFRSYM    DATA     BIT       PSW_RS0
      000000D0H.4 SFRSYM    DATA     BIT       PSW_RS1
      000000D1H   SFRSYM    DATA     BYTE      REF0CN
      000000C9H   SFRSYM    DATA     BYTE      REG0CN
      000000B6H   SFRSYM    DATA     BYTE      REVID
      000000EFH   SFRSYM    DATA     BYTE      RSTSRC
      00000099H   SFRSYM    DATA     BYTE      SBUF0
      00000098H   SFRSYM    DATA     BYTE      SCON0
      00000098H.5 SFRSYM    DATA     BIT       SCON0_MCE
      00000098H.2 SFRSYM    DATA     BIT       SCON0_RB8
      00000098H.4 SFRSYM    DATA     BIT       SCON0_REN
      00000098H.0 SFRSYM    DATA     BIT       SCON0_RI
      00000098H.7 SFRSYM    DATA     BIT       SCON0_SMODE
      00000098H.3 SFRSYM    DATA     BIT       SCON0_TB8
      00000098H.1 SFRSYM    DATA     BIT       SCON0_TI
      000000D6H   SFRSYM    DATA     BYTE      SMB0ADM
      000000D7H   SFRSYM    DATA     BYTE      SMB0ADR
      000000C1H   SFRSYM    DATA     BYTE      SMB0CF
      000000C0H   SFRSYM    DATA     BYTE      SMB0CN0
      000000C0H.1 SFRSYM    DATA     BIT       SMB0CN0_ACK
      000000C0H.3 SFRSYM    DATA     BIT       SMB0CN0_ACKRQ
      000000C0H.2 SFRSYM    DATA     BIT       SMB0CN0_ARBLOST
      000000C0H.7 SFRSYM    DATA     BIT       SMB0CN0_MASTER
      000000C0H.0 SFRSYM    DATA     BIT       SMB0CN0_SI
      000000C0H.5 SFRSYM    DATA     BIT       SMB0CN0_STA
      000000C0H.4 SFRSYM    DATA     BIT       SMB0CN0_STO
      000000C0H.6 SFRSYM    DATA     BIT       SMB0CN0_TXMODE
      000000C2H   SFRSYM    DATA     BYTE      SMB0DAT
      000000ACH   SFRSYM    DATA     BYTE      SMB0TC
LX51 LINKER/LOCATER V4.66.87.0                                                        01/09/2018  16:51:33  PAGE 9


      00000081H   SFRSYM    DATA     BYTE      SP
      000000A1H   SFRSYM    DATA     BYTE      SPI0CFG
      000000A2H   SFRSYM    DATA     BYTE      SPI0CKR
      000000F8H   SFRSYM    DATA     BYTE      SPI0CN0
      000000F8H.5 SFRSYM    DATA     BIT       SPI0CN0_MODF
      000000F8H.2 SFRSYM    DATA     BIT       SPI0CN0_NSSMD0
      000000F8H.3 SFRSYM    DATA     BIT       SPI0CN0_NSSMD1
      000000F8H.4 SFRSYM    DATA     BIT       SPI0CN0_RXOVRN
      000000F8H.0 SFRSYM    DATA     BIT       SPI0CN0_SPIEN
      000000F8H.7 SFRSYM    DATA     BIT       SPI0CN0_SPIF
      000000F8H.1 SFRSYM    DATA     BIT       SPI0CN0_TXBMT
      000000F8H.6 SFRSYM    DATA     BIT       SPI0CN0_WCOL
      000000A3H   SFRSYM    DATA     BYTE      SPI0DAT
      00000088H   SFRSYM    DATA     BYTE      TCON
      00000088H.1 SFRSYM    DATA     BIT       TCON_IE0
      00000088H.3 SFRSYM    DATA     BIT       TCON_IE1
      00000088H.0 SFRSYM    DATA     BIT       TCON_IT0
      00000088H.2 SFRSYM    DATA     BIT       TCON_IT1
      00000088H.5 SFRSYM    DATA     BIT       TCON_TF0
      00000088H.7 SFRSYM    DATA     BIT       TCON_TF1
      00000088H.4 SFRSYM    DATA     BIT       TCON_TR0
      00000088H.6 SFRSYM    DATA     BIT       TCON_TR1
      0000008CH   SFRSYM    DATA     BYTE      TH0
      0000008DH   SFRSYM    DATA     BYTE      TH1
      0000008AH   SFRSYM    DATA     BYTE      TL0
      0000008BH   SFRSYM    DATA     BYTE      TL1
      00000089H   SFRSYM    DATA     BYTE      TMOD
      000000CCH   SFRSYM    DATA     BYTE      TMR2
      000000C8H   SFRSYM    DATA     BYTE      TMR2CN0
      000000C8H.3 SFRSYM    DATA     BIT       TMR2CN0_T2SPLIT
      000000C8H.0 SFRSYM    DATA     BIT       TMR2CN0_T2XCLK
      000000C8H.4 SFRSYM    DATA     BIT       TMR2CN0_TF2CEN
      000000C8H.7 SFRSYM    DATA     BIT       TMR2CN0_TF2H
      000000C8H.6 SFRSYM    DATA     BIT       TMR2CN0_TF2L
      000000C8H.5 SFRSYM    DATA     BIT       TMR2CN0_TF2LEN
      000000C8H.2 SFRSYM    DATA     BIT       TMR2CN0_TR2
      000000CDH   SFRSYM    DATA     BYTE      TMR2H
      000000CCH   SFRSYM    DATA     BYTE      TMR2L
      000000CAH   SFRSYM    DATA     BYTE      TMR2RL
      000000CBH   SFRSYM    DATA     BYTE      TMR2RLH
      000000CAH   SFRSYM    DATA     BYTE      TMR2RLL
      00000094H   SFRSYM    DATA     BYTE      TMR3
      00000091H   SFRSYM    DATA     BYTE      TMR3CN0
      00000095H   SFRSYM    DATA     BYTE      TMR3H
      00000094H   SFRSYM    DATA     BYTE      TMR3L
      00000092H   SFRSYM    DATA     BYTE      TMR3RL
      00000093H   SFRSYM    DATA     BYTE      TMR3RLH
      00000092H   SFRSYM    DATA     BYTE      TMR3RLL
      000000FFH   SFRSYM    DATA     BYTE      VDM0CN
      00000097H   SFRSYM    DATA     BYTE      WDTCN
      000000E1H   SFRSYM    DATA     BYTE      XBR0
      000000E2H   SFRSYM    DATA     BYTE      XBR1
      000000E3H   SFRSYM    DATA     BYTE      XBR2
      01001A10H   SYMBOL    CODE     BYTE      _EEP_MAIN_REARM_START
      01001A20H   SYMBOL    CODE     BYTE      _EEP_PGM_BEC_VOLTAGE_HIGH
      01001A16H   SYMBOL    CODE     BYTE      _EEP_PGM_DAMPING_FORCE
      01001A25H   SYMBOL    CODE     BYTE      _EEP_PGM_ENABLE_PWM_INPUT
      01001A04H   SYMBOL    CODE     BYTE      _EEP_PGM_GOV_I_GAIN
      01001A05H   SYMBOL    CODE     BYTE      _EEP_PGM_GOV_MODE
      01001A03H   SYMBOL    CODE     BYTE      _EEP_PGM_GOV_P_GAIN
      01001A17H   SYMBOL    CODE     BYTE      _EEP_PGM_GOV_RANGE
      01001A11H   SYMBOL    CODE     BYTE      _EEP_PGM_GOV_SETUP_TARGET
LX51 LINKER/LOCATER V4.66.87.0                                                        01/09/2018  16:51:33  PAGE 10


      01001A0CH   SYMBOL    CODE     BYTE      _EEP_PGM_INPUT_POL
      01001A06H   SYMBOL    CODE     BYTE      _EEP_PGM_LOW_VOLTAGE_LIM
      01001A22H   SYMBOL    CODE     BYTE      _EEP_PGM_MAIN_SPOOLUP_TIME
      01001A07H   SYMBOL    CODE     BYTE      _EEP_PGM_MOTOR_GAIN
      01001A08H   SYMBOL    CODE     BYTE      _EEP_PGM_MOTOR_IDLE
      01001A26H   SYMBOL    CODE     BYTE      _EEP_PGM_PWM_DITHER
      01001A0AH   SYMBOL    CODE     BYTE      _EEP_PGM_PWM_FREQ
      01001A13H   SYMBOL    CODE     BYTE      _EEP_PGM_STARTUP_ACCEL
      01001A18H   SYMBOL    CODE     BYTE      _EEP_PGM_STARTUP_METHOD
      01001A12H   SYMBOL    CODE     BYTE      _EEP_PGM_STARTUP_RPM
      01001A1EH   SYMBOL    CODE     BYTE      _EEP_PGM_THROTTLE_RATE
      01001A14H   SYMBOL    CODE     BYTE      _EEP_PGM_VOLT_COMP
      0000009DH   SYMBOL    IDATA    BYTE      _PGM_BEC_VOLTAGE_HIGH
      00000093H   SYMBOL    IDATA    BYTE      _PGM_DAMPING_FORCE
      000000A2H   SYMBOL    IDATA    BYTE      _PGM_ENABLE_PWM_INPUT
      00000081H   SYMBOL    IDATA    BYTE      _PGM_GOV_I_GAIN
      00000082H   SYMBOL    IDATA    BYTE      _PGM_GOV_MODE
      00000080H   SYMBOL    IDATA    BYTE      _PGM_GOV_P_GAIN
      00000094H   SYMBOL    IDATA    BYTE      _PGM_GOV_RANGE
      0000008EH   SYMBOL    IDATA    BYTE      _PGM_GOV_SETUP_TARGET
      00000083H   SYMBOL    IDATA    BYTE      _PGM_LOW_VOLTAGE_LIM
      0000008DH   SYMBOL    IDATA    BYTE      _PGM_MAIN_REARM_START
      0000009FH   SYMBOL    IDATA    BYTE      _PGM_MAIN_SPOOLUP_TIME
      00000084H   SYMBOL    IDATA    BYTE      _PGM_MOTOR_GAIN
      00000085H   SYMBOL    IDATA    BYTE      _PGM_MOTOR_IDLE
      000000A3H   SYMBOL    IDATA    BYTE      _PGM_PWM_DITHER
      00000087H   SYMBOL    IDATA    BYTE      _PGM_PWM_FREQ
      00000090H   SYMBOL    IDATA    BYTE      _PGM_STARTUP_ACCEL
      00000095H   SYMBOL    IDATA    BYTE      _PGM_STARTUP_METHOD
      0000008FH   SYMBOL    IDATA    BYTE      _PGM_STARTUP_RPM
      0000009BH   SYMBOL    IDATA    BYTE      _PGM_THROTTLE_RATE
      00000091H   SYMBOL    IDATA    BYTE      _PGM_VOLT_COMP
      00000001H   SYMBOL    NUMBER   ---       A_
      01001C31H   SYMBOL    CODE     NEAR LAB  ABD
      00000001H   SYMBOL    NUMBER   ---       ACOMFET
      0000000AH   SYMBOL    NUMBER   ---       ADC0EOC_IRQN
      00000009H   SYMBOL    NUMBER   ---       ADC0WC_IRQN
      0000005EH   SYMBOL    DATA     BYTE      ADC_CONVERSION_CNT
      010007E9H   SYMBOL    CODE     NEAR LAB  ADJUST_TIMING_TWO_STEPS
      0100084EH   SYMBOL    CODE     NEAR LAB  ADJUST_TIMING_TWO_STEPS_FAST
      00000000H   SYMBOL    NUMBER   ---       APWMFET
      01000FC9H   SYMBOL    CODE     NEAR LAB  ARM_END_BEEP
      01000F2EH   SYMBOL    CODE     NEAR LAB  ARMING_CHECK
      01000F25H   SYMBOL    CODE     NEAR LAB  ARMING_INITIAL_ARM_CHECK
      01000F0FH   SYMBOL    CODE     NEAR LAB  ARMING_START
      01000CEDH   SYMBOL    CODE     NEAR LAB  AVERAGE_THROTTLE
      01000D0CH   SYMBOL    CODE     NEAR LAB  AVERAGE_THROTTLE_DIV
      01000CFDH   SYMBOL    CODE     NEAR LAB  AVERAGE_THROTTLE_MEAS
      00000002H   SYMBOL    NUMBER   ---       B_
      00000025H   SYMBOL    DATA     BYTE      BAUDH
      00000024H   SYMBOL    DATA     BYTE      BAUDL
      00000198H   SYMBOL    NUMBER   ---       BAUDTIME
      00000003H   SYMBOL    NUMBER   ---       BCOMFET
      01000AE4H   SYMBOL    CODE     NEAR LAB  BEEP
      01000B17H   SYMBOL    CODE     NEAR LAB  BEEP_APWMFET_OFF
      01000B07H   SYMBOL    CODE     NEAR LAB  BEEP_APWMFET_ON
      01000B1CH   SYMBOL    CODE     NEAR LAB  BEEP_CPWMFET_OFF
      01000B0CH   SYMBOL    CODE     NEAR LAB  BEEP_CPWMFET_ON
      01001001H   SYMBOL    CODE     NEAR LAB  BEEP_DELAY_SET
      01000ACCH   SYMBOL    CODE     NEAR LAB  BEEP_F1
      01000AD2H   SYMBOL    CODE     NEAR LAB  BEEP_F2
      01000AD8H   SYMBOL    CODE     NEAR LAB  BEEP_F3
LX51 LINKER/LOCATER V4.66.87.0                                                        01/09/2018  16:51:33  PAGE 11


      01000ADEH   SYMBOL    CODE     NEAR LAB  BEEP_F4
      01000B25H   SYMBOL    CODE     NEAR LAB  BEEP_OFF
      01000AECH   SYMBOL    CODE     NEAR LAB  BEEP_ONOFF
      01000AEAH   SYMBOL    CODE     NEAR LAB  BEEP_START
      00000064H   SYMBOL    DATA     BYTE      BEEP_STRENGTH
      00000020H   SYMBOL    DATA     BYTE      BIT_ACCESS
      00000021H   SYMBOL    DATA     BYTE      BIT_ACCESS_INT
      00000026H   SYMBOL    DATA     BYTE      BIT_CNT
      00000020H   SYMBOL    DATA     BYTE      BIT_REG
      00000029H   SYMBOL    DATA     BYTE      BL_FLASH_KEY_1
      0000002AH   SYMBOL    DATA     BYTE      BL_FLASH_KEY_2
      00004B00H   SYMBOL    NUMBER   ---       BOOT_BAUDRATE
      005F5E10H   SYMBOL    NUMBER   ---       BOOT_DELAY
      01001DF2H   SYMBOL    CODE     BYTE      BOOT_INFO
      01001DEEH   SYMBOL    CODE     BYTE      BOOT_MSG
      00000001H   SYMBOL    NUMBER   ---       BOOT_PAGES
      01001DE8H   SYMBOL    CODE     BYTE      BOOT_SIGN
      00001C00H   SYMBOL    NUMBER   ---       BOOT_START
      00000006H   SYMBOL    NUMBER   ---       BOOT_VERSION
      01000DB8H   SYMBOL    CODE     NEAR LAB  BOOTLOADER_DONE
      00000002H   SYMBOL    NUMBER   ---       BPWMFET
      00000028H   SYMBOL    DATA     BYTE      BYTE_CNTH
      00000027H   SYMBOL    DATA     BYTE      BYTE_CNTL
      00000021H   SYMBOL    DATA     BYTE      BYTE_REG
      00000003H   SYMBOL    NUMBER   ---       C_
      0100072CH   SYMBOL    CODE     NEAR LAB  CALC_NEW_WAIT_PER_DEMAG_DONE
      01000710H   SYMBOL    CODE     NEAR LAB  CALC_NEW_WAIT_PER_STARTUP_DONE
      010007B7H   SYMBOL    CODE     NEAR LAB  CALC_NEW_WAIT_TIMES
      01000758H   SYMBOL    CODE     NEAR LAB  CALC_NEW_WAIT_TIMES_EXIT
      01000835H   SYMBOL    CODE     NEAR LAB  CALC_NEW_WAIT_TIMES_FAST
      010007A3H   SYMBOL    CODE     NEAR LAB  CALC_NEW_WAIT_TIMES_FAST_DONE
      01000701H   SYMBOL    CODE     NEAR LAB  CALC_NEW_WAIT_TIMES_SETUP
      010006D3H   SYMBOL    CODE     NEAR LAB  CALC_NEXT_COMM_AVG_PERIOD_DIV
      010006E6H   SYMBOL    CODE     NEAR LAB  CALC_NEXT_COMM_NEW_PERIOD_DIV
      010006EFH   SYMBOL    CODE     NEAR LAB  CALC_NEXT_COMM_NEW_PERIOD_DIV_DONE
      010006B4H   SYMBOL    CODE     NEAR LAB  CALC_NEXT_COMM_NORMAL
      01000676H   SYMBOL    CODE     NEAR LAB  CALC_NEXT_COMM_STARTUP
      01000699H   SYMBOL    CODE     NEAR LAB  CALC_NEXT_COMM_STARTUP_AVERAGE
      01000686H   SYMBOL    CODE     NEAR LAB  CALC_NEXT_COMM_STARTUP_NO_X
      0100064BH   SYMBOL    CODE     NEAR LAB  CALC_NEXT_COMM_TIMING
      0100075BH   SYMBOL    CODE     NEAR LAB  CALC_NEXT_COMM_TIMING_FAST
      00000005H   SYMBOL    NUMBER   ---       CCOMFET
      00000034H   SYMBOL    DATA     BYTE      CENTER_THROTTLE_H
      00000033H   SYMBOL    DATA     BYTE      CENTER_THROTTLE_L
      01001052H   SYMBOL    CODE     NEAR LAB  CHECK_DSHOT_CMD
      010005CEH   SYMBOL    CODE     NEAR LAB  CHECK_TEMP_VOLTAGE_AND_LIMIT_POWER
      0100062AH   SYMBOL    CODE     NEAR LAB  CHECK_VOLTAGE_START
      010011E6H   SYMBOL    CODE     NEAR LAB  CLEAR_DSHOT_CMD
      01000D7DH   SYMBOL    CODE     NEAR LAB  CLEAR_RAM
      00000066H   SYMBOL    DATA     BYTE      CLOCK_SET_AT_48MHZ
      0000000CH   SYMBOL    NUMBER   ---       CMP0_IRQN
      0000000DH   SYMBOL    NUMBER   ---       CMP1_IRQN
      01000A0EH   SYMBOL    CODE     NEAR LAB  COMM12_REV
      010009FBH   SYMBOL    CODE     NEAR LAB  COMM1COMM2
      01000A31H   SYMBOL    CODE     NEAR LAB  COMM23_REV
      01000A1EH   SYMBOL    CODE     NEAR LAB  COMM2COMM3
      01000A54H   SYMBOL    CODE     NEAR LAB  COMM34_REV
      01000A41H   SYMBOL    CODE     NEAR LAB  COMM3COMM4
      01000A77H   SYMBOL    CODE     NEAR LAB  COMM45_REV
      01000A64H   SYMBOL    CODE     NEAR LAB  COMM4COMM5
      01000A9AH   SYMBOL    CODE     NEAR LAB  COMM56_REV
      01000A87H   SYMBOL    CODE     NEAR LAB  COMM5COMM6
LX51 LINKER/LOCATER V4.66.87.0                                                        01/09/2018  16:51:33  PAGE 12


      01000ABDH   SYMBOL    CODE     NEAR LAB  COMM61_REV
      01000AAAH   SYMBOL    CODE     NEAR LAB  COMM6COMM1
      01000ACBH   SYMBOL    CODE     NEAR LAB  COMM_EXIT
      00000048H   SYMBOL    DATA     BYTE      COMM_PERIOD4X_H
      00000047H   SYMBOL    DATA     BYTE      COMM_PERIOD4X_L
      010008F7H   SYMBOL    CODE     NEAR LAB  COMP_CHECK_TIMEOUT
      01000908H   SYMBOL    CODE     NEAR LAB  COMP_CHECK_TIMEOUT_EXTEND_TIMEOUT
      0100090AH   SYMBOL    CODE     NEAR LAB  COMP_CHECK_TIMEOUT_NOT_TIMED_OUT
      01000904H   SYMBOL    CODE     NEAR LAB  COMP_CHECK_TIMEOUT_TIMEOUT_EXTENDED
      00000000H   SYMBOL    NUMBER   ---       COMP_COM
      01000961H   SYMBOL    CODE     NEAR LAB  COMP_READ_OK
      01000973H   SYMBOL    CODE     NEAR LAB  COMP_READ_OK_JMP
      01000915H   SYMBOL    CODE     NEAR LAB  COMP_READ_WRONG
      0100092EH   SYMBOL    CODE     NEAR LAB  COMP_READ_WRONG_EXTEND_TIMEOUT
      01000957H   SYMBOL    CODE     NEAR LAB  COMP_READ_WRONG_LOAD_TIMEOUT
      0100094AH   SYMBOL    CODE     NEAR LAB  COMP_READ_WRONG_LOW_RPM
      01000921H   SYMBOL    CODE     NEAR LAB  COMP_READ_WRONG_NOT_STARTUP
      0100093FH   SYMBOL    CODE     NEAR LAB  COMP_READ_WRONG_TIMEOUT_SET
      010008F7H   SYMBOL    CODE     NEAR LAB  COMP_SCALE_SAMPLES
      00000002H   SYMBOL    NUMBER   ---       COMP_TIMED_OUT
      00000049H   SYMBOL    DATA     BYTE      COMPARATOR_READ_CNT
      00000004H   SYMBOL    NUMBER   ---       CPWMFET
      00000023H   SYMBOL    DATA     BYTE      CRCH
      00000022H   SYMBOL    DATA     BYTE      CRCL
      0000005FH   SYMBOL    DATA     BYTE      CURRENT_AVERAGE_TEMP
      0000005AH   SYMBOL    DATA     BYTE      CURRENT_POWER_PWM_REG_H
      00000004H   SYMBOL    NUMBER   ---       D_
      00000059H   SYMBOL    DATA     BYTE      DAMP_PWM_REG_H
      00000058H   SYMBOL    DATA     BYTE      DAMP_PWM_REG_L
      00000000H   SYMBOL    NUMBER   ---       DEBUGPIN
      01000C0CH   SYMBOL    CODE     NEAR LAB  DECODE_DEMAG_DONE
      01000C06H   SYMBOL    CODE     NEAR LAB  DECODE_DEMAG_HIGH
      01000BCAH   SYMBOL    CODE     NEAR LAB  DECODE_SETTINGS
      01000C18H   SYMBOL    CODE     NEAR LAB  DECODE_TEMP_DONE
      01000C14H   SYMBOL    CODE     NEAR LAB  DECODE_TEMP_STEP
      00000004H   SYMBOL    NUMBER   ---       DEFAULT_PGM_BEACON_DELAY
      00000050H   SYMBOL    NUMBER   ---       DEFAULT_PGM_BEACON_STRENGTH
      00000028H   SYMBOL    NUMBER   ---       DEFAULT_PGM_BEEP_STRENGTH
      00000000H   SYMBOL    NUMBER   ---       DEFAULT_PGM_BRAKE_ON_STOP
      0000007AH   SYMBOL    NUMBER   ---       DEFAULT_PGM_CENTER_THROTTLE
      00000003H   SYMBOL    NUMBER   ---       DEFAULT_PGM_COMM_TIMING
      00000002H   SYMBOL    NUMBER   ---       DEFAULT_PGM_DEMAG_COMP
      00000001H   SYMBOL    NUMBER   ---       DEFAULT_PGM_DIRECTION
      00000001H   SYMBOL    NUMBER   ---       DEFAULT_PGM_ENABLE_POWER_PROT
      00000007H   SYMBOL    NUMBER   ---       DEFAULT_PGM_ENABLE_TEMP_PROT
      00000001H   SYMBOL    NUMBER   ---       DEFAULT_PGM_ENABLE_TX_PROGRAM
      00000000H   SYMBOL    NUMBER   ---       DEFAULT_PGM_LED_CONTROL
      000000D0H   SYMBOL    NUMBER   ---       DEFAULT_PGM_MAX_THROTTLE
      00000025H   SYMBOL    NUMBER   ---       DEFAULT_PGM_MIN_THROTTLE
      00000009H   SYMBOL    NUMBER   ---       DEFAULT_PGM_STARTUP_PWR
      00000001H   SYMBOL    NUMBER   ---       DEMAG_DETECTED
      0000003DH   SYMBOL    DATA     BYTE      DEMAG_DETECTED_METRIC
      0000003EH   SYMBOL    DATA     BYTE      DEMAG_PWR_OFF_THRESH
      00000003H   SYMBOL    NUMBER   ---       DIR_CHANGE_BRAKE
      010012CAH   SYMBOL    CODE     NEAR LAB  DIRECT_START_CHECK_RCP
      010011ECH   SYMBOL    CODE     NEAR LAB  DONT_CLEAR_DSHOT_CMD
      01001070H   SYMBOL    CODE     NEAR LAB  DSHOT_BEEP_2
      0100108EH   SYMBOL    CODE     NEAR LAB  DSHOT_BEEP_3
      010010ACH   SYMBOL    CODE     NEAR LAB  DSHOT_BEEP_4
      010010CAH   SYMBOL    CODE     NEAR LAB  DSHOT_BEEP_5
      00000052H   SYMBOL    DATA     BYTE      DSHOT_CMD
      00000053H   SYMBOL    DATA     BYTE      DSHOT_CMD_CNT
LX51 LINKER/LOCATER V4.66.87.0                                                        01/09/2018  16:51:33  PAGE 13


      010010E8H   SYMBOL    CODE     NEAR LAB  DSHOT_DIRECTION_1
      01001108H   SYMBOL    CODE     NEAR LAB  DSHOT_DIRECTION_2
      01001128H   SYMBOL    CODE     NEAR LAB  DSHOT_DIRECTION_BIDIR_OFF
      01001146H   SYMBOL    CODE     NEAR LAB  DSHOT_DIRECTION_BIDIR_ON
      01001163H   SYMBOL    CODE     NEAR LAB  DSHOT_DIRECTION_NORMAL
      0100118FH   SYMBOL    CODE     NEAR LAB  DSHOT_DIRECTION_REVERSE
      0000006EH   SYMBOL    DATA     BYTE      DSHOT_FRAME_LENGTH_THR
      0000006DH   SYMBOL    DATA     BYTE      DSHOT_FRAME_START_H
      0000006CH   SYMBOL    DATA     BYTE      DSHOT_FRAME_START_L
      0000006AH   SYMBOL    DATA     BYTE      DSHOT_PWM_THR
      010011CEH   SYMBOL    CODE     NEAR LAB  DSHOT_SAVE_SETTINGS
      0000006BH   SYMBOL    DATA     BYTE      DSHOT_TIMER_PRESET
      00000005H   SYMBOL    NUMBER   ---       E_
      01001A29H   SYMBOL    CODE     BYTE      EEP_DUMMY
      01001A0FH   SYMBOL    CODE     BYTE      EEP_ENABLE_TX_PROGRAM
      01001A40H   SYMBOL    CODE     BYTE      EEP_ESC_LAYOUT
      01001A50H   SYMBOL    CODE     BYTE      EEP_ESC_MCU
      01001A00H   SYMBOL    CODE     BYTE      EEP_FW_MAIN_REVISION
      01001A01H   SYMBOL    CODE     BYTE      EEP_FW_SUB_REVISION
      01001A0EH   SYMBOL    CODE     BYTE      EEP_INITIALIZED_H
      01001A0DH   SYMBOL    CODE     BYTE      EEP_INITIALIZED_L
      01001A02H   SYMBOL    CODE     BYTE      EEP_LAYOUT_REVISION
      01001A60H   SYMBOL    CODE     BYTE      EEP_NAME
      01001A1DH   SYMBOL    CODE     BYTE      EEP_PGM_BEACON_DELAY
      01001A1CH   SYMBOL    CODE     BYTE      EEP_PGM_BEACON_STRENGTH
      01001A1BH   SYMBOL    CODE     BYTE      EEP_PGM_BEEP_STRENGTH
      01001A27H   SYMBOL    CODE     BYTE      EEP_PGM_BRAKE_ON_STOP
      01001A21H   SYMBOL    CODE     BYTE      EEP_PGM_CENTER_THROTTLE
      01001A15H   SYMBOL    CODE     BYTE      EEP_PGM_COMM_TIMING
      01001A1FH   SYMBOL    CODE     BYTE      EEP_PGM_DEMAG_COMP
      01001A0BH   SYMBOL    CODE     BYTE      EEP_PGM_DIRECTION
      01001A24H   SYMBOL    CODE     BYTE      EEP_PGM_ENABLE_POWER_PROT
      01001A28H   SYMBOL    CODE     BYTE      EEP_PGM_LED_CONTROL
      01001A1AH   SYMBOL    CODE     BYTE      EEP_PGM_MAX_THROTTLE
      01001A19H   SYMBOL    CODE     BYTE      EEP_PGM_MIN_THROTTLE
      01001A09H   SYMBOL    CODE     BYTE      EEP_PGM_STARTUP_PWR
      01001A23H   SYMBOL    CODE     BYTE      EEP_PGM_TEMP_PROT_ENABLE
      00000010H   SYMBOL    NUMBER   ---       EEPROM_FW_MAIN_REVISION
      0000004DH   SYMBOL    NUMBER   ---       EEPROM_FW_SUB_REVISION
      00000021H   SYMBOL    NUMBER   ---       EEPROM_LAYOUT_REVISION
      010013D1H   SYMBOL    CODE     NEAR LAB  ERASE_AND_STORE_ALL_IN_EEPROM
      0100142AH   SYMBOL    CODE     NEAR LAB  ERASE_FLASH
      000000C1H   SYMBOL    NUMBER   ---       ERRORCOMMAND
      000000C2H   SYMBOL    NUMBER   ---       ERRORCRC
      000000C5H   SYMBOL    NUMBER   ---       ERRORPROG
      000000C0H   SYMBOL    NUMBER   ---       ERRORVERIFY
      010009A2H   SYMBOL    CODE     NEAR LAB  EVAL_COMP_CHECK_TIMEOUT
      010009B2H   SYMBOL    CODE     NEAR LAB  EVAL_COMP_EXIT
      01000995H   SYMBOL    CODE     NEAR LAB  EVALUATE_COMPARATOR_INTEGRITY
      01001CBAH   SYMBOL    CODE     NEAR LAB  EXIT
      00000006H   SYMBOL    NUMBER   ---       F_
      01000C9EH   SYMBOL    CODE     NEAR LAB  FIND_THROTTLE_GAIN
      01000C97H   SYMBOL    CODE     NEAR LAB  FIND_THROTTLE_GAIN_FWD
      01000CC9H   SYMBOL    CODE     NEAR LAB  FIND_THROTTLE_GAIN_LOOP
      01000C38H   SYMBOL    CODE     NEAR LAB  FIND_THROTTLE_GAINS
      01000C71H   SYMBOL    CODE     NEAR LAB  FIND_THROTTLE_GAINS_BIDIR_DONE
      01000C4CH   SYMBOL    CODE     NEAR LAB  FIND_THROTTLE_GAINS_NORMAL
      00000024H   SYMBOL    DATA     BYTE      FLAGS0
      00000025H   SYMBOL    DATA     BYTE      FLAGS1
      00000026H   SYMBOL    DATA     BYTE      FLAGS2
      00000027H   SYMBOL    DATA     BYTE      FLAGS3
      00000067H   SYMBOL    DATA     BYTE      FLASH_KEY_1
LX51 LINKER/LOCATER V4.66.87.0                                                        01/09/2018  16:51:33  PAGE 14


      00000068H   SYMBOL    DATA     BYTE      FLASH_KEY_2
      00000007H   SYMBOL    NUMBER   ---       G_
      01001D96H   SYMBOL    CODE     NEAR LAB  GET1
      01001DABH   SYMBOL    CODE     NEAR LAB  GET2
      01001DCFH   SYMBOL    CODE     NEAR LAB  GET3
      01001D91H   SYMBOL    CODE     NEAR LAB  GETC
      01001D8DH   SYMBOL    CODE     NEAR LAB  GETW
      01001D9BH   SYMBOL    CODE     NEAR LAB  GETX
      00000008H   SYMBOL    NUMBER   ---       H_
      00000004H   SYMBOL    NUMBER   ---       HIGH_RPM
      00000009H   SYMBOL    NUMBER   ---       I_
      01001C4DH   SYMBOL    CODE     NEAR LAB  ID1
      01001C58H   SYMBOL    CODE     NEAR LAB  ID3
      01001C63H   SYMBOL    CODE     NEAR LAB  ID4
      01001C70H   SYMBOL    CODE     NEAR LAB  ID5
      01001C7AH   SYMBOL    CODE     NEAR LAB  IN1
      01001C00H   SYMBOL    CODE     NEAR LAB  INIT
      01000DA2H   SYMBOL    CODE     NEAR LAB  INIT_NO_SIGNAL
      010011F4H   SYMBOL    CODE     NEAR LAB  INIT_START
      01001238H   SYMBOL    CODE     NEAR LAB  INIT_START_BIDIR_DONE
      00000030H   SYMBOL    DATA     BYTE      INITIAL_ARM
      010012E7H   SYMBOL    CODE     NEAR LAB  INITIAL_RUN_CHECK_STARTUP_ROT
      010012F3H   SYMBOL    CODE     NEAR LAB  INITIAL_RUN_CONTINUE_RUN
      00000001H   SYMBOL    NUMBER   ---       INITIAL_RUN_PHASE
      010012F8H   SYMBOL    CODE     NEAR LAB  INITIAL_RUN_PHASE_DONE
      0000003BH   SYMBOL    DATA     BYTE      INITIAL_RUN_ROT_CNTD
      01000644H   SYMBOL    CODE     NEAR LAB  INITIALIZE_TIMING
      0000008BH   SYMBOL    IDATA    BYTE      INITIALIZED_H_DUMMY
      0000008AH   SYMBOL    IDATA    BYTE      INITIALIZED_L_DUMMY
      01000DACH   SYMBOL    CODE     NEAR LAB  INPUT_HIGH_CHECK_1
      01000DAEH   SYMBOL    CODE     NEAR LAB  INPUT_HIGH_CHECK_2
      01000310H   SYMBOL    CODE     NEAR LAB  INT0_INT
      01000429H   SYMBOL    CODE     NEAR LAB  INT0_INT_BIDIR_DO_DEADBAND
      01000403H   SYMBOL    CODE     NEAR LAB  INT0_INT_BIDIR_FWD
      01000408H   SYMBOL    CODE     NEAR LAB  INT0_INT_BIDIR_REV_CHK
      010003EAH   SYMBOL    CODE     NEAR LAB  INT0_INT_CALCULATE
      010003D0H   SYMBOL    CODE     NEAR LAB  INT0_INT_CHECK_FULL_RANGE
      01000448H   SYMBOL    CODE     NEAR LAB  INT0_INT_DO_THROTTLE_GAIN
      010004F5H   SYMBOL    CODE     NEAR LAB  INT0_INT_EXIT
      010003ABH   SYMBOL    CODE     NEAR LAB  INT0_INT_FALL_GAIN_DONE
      01000362H   SYMBOL    CODE     NEAR LAB  INT0_INT_FALL_NOT_MULTISHOT
      0100038CH   SYMBOL    CODE     NEAR LAB  INT0_INT_FALL_NOT_ONESHOT_125
      01000374H   SYMBOL    CODE     NEAR LAB  INT0_INT_FALL_NOT_ONESHOT_42
      01000481H   SYMBOL    CODE     NEAR LAB  INT0_INT_GAIN_LOOP
      01000489H   SYMBOL    CODE     NEAR LAB  INT0_INT_GAIN_RCP_DONE
      0100043CH   SYMBOL    CODE     NEAR LAB  INT0_INT_NOT_BIDIR
      0100031FH   SYMBOL    CODE     NEAR LAB  INT0_INT_NOT_DSHOT
      010003BAH   SYMBOL    CODE     NEAR LAB  INT0_INT_OUTSIDE_RANGE
      0100049EH   SYMBOL    CODE     NEAR LAB  INT0_INT_PULSE_READY
      010003DFH   SYMBOL    CODE     NEAR LAB  INT0_INT_SET_MIN
      010004D7H   SYMBOL    CODE     NEAR LAB  INT0_INT_SET_PWM_DAMP_SET
      010004C0H   SYMBOL    CODE     NEAR LAB  INT0_INT_SET_PWM_REGISTERS
      010004F2H   SYMBOL    CODE     NEAR LAB  INT0_INT_SET_TIMEOUT
      0100045EH   SYMBOL    CODE     NEAR LAB  INT0_INT_STARTUP_BOOST_STALL
      01000467H   SYMBOL    CODE     NEAR LAB  INT0_INT_STARTUP_BOOSTED
      01000440H   SYMBOL    CODE     NEAR LAB  INT0_INT_UNIDIR_NEG
      00000000H   SYMBOL    NUMBER   ---       INT0_IRQN
      010004FFH   SYMBOL    CODE     NEAR LAB  INT1_INT
      00000002H   SYMBOL    NUMBER   ---       INT1_IRQN
      0000000AH   SYMBOL    NUMBER   ---       J_
      01001387H   SYMBOL    CODE     NEAR LAB  JMP_WAIT_FOR_POWER_ON
      0000000BH   SYMBOL    NUMBER   ---       K_
LX51 LINKER/LOCATER V4.66.87.0                                                        01/09/2018  16:51:33  PAGE 15


      0000000CH   SYMBOL    NUMBER   ---       L_
      01000D28H   SYMBOL    CODE     NEAR LAB  LED_0_DONE
      01000D2DH   SYMBOL    CODE     NEAR LAB  LED_1_DONE
      01000D32H   SYMBOL    CODE     NEAR LAB  LED_2_DONE
      01000D37H   SYMBOL    CODE     NEAR LAB  LED_3_DONE
      01000D20H   SYMBOL    CODE     NEAR LAB  LED_CONTROL
      01000754H   SYMBOL    CODE     NEAR LAB  LOAD_MIN_TIME
      010007A1H   SYMBOL    CODE     NEAR LAB  LOAD_MIN_TIME_FAST
      0000003FH   SYMBOL    DATA     BYTE      LOW_RPM_PWR_SLOPE
      0000000DH   SYMBOL    NUMBER   ---       M_
      01001C84H   SYMBOL    CODE     NEAR LAB  MAI1
      01001CA6H   SYMBOL    CODE     NEAR LAB  MAI2
      01001CE0H   SYMBOL    CODE     NEAR LAB  MAI4
      01001D37H   SYMBOL    CODE     NEAR LAB  MAI5
      01001D48H   SYMBOL    CODE     NEAR LAB  MAI6
      01001C82H   SYMBOL    CODE     NEAR LAB  MAIN
      00000036H   SYMBOL    DATA     BYTE      MAX_THROTTLE_H
      00000035H   SYMBOL    DATA     BYTE      MAX_THROTTLE_L
      00000032H   SYMBOL    DATA     BYTE      MIN_THROTTLE_H
      00000031H   SYMBOL    DATA     BYTE      MIN_THROTTLE_L
      00000002H   SYMBOL    NUMBER   ---       MOTOR_STARTED
      00000001H   SYMBOL    NUMBER   ---       MUX_A
      00000002H   SYMBOL    NUMBER   ---       MUX_B
      00000003H   SYMBOL    NUMBER   ---       MUX_C
      0000000EH   SYMBOL    NUMBER   ---       N_
      00000054H   SYMBOL    DATA     BYTE      NEW_RCP
      010012D6H   SYMBOL    CODE     NEAR LAB  NORMAL_RUN_CHECKS
      0000000FH   SYMBOL    NUMBER   ---       O_
      0000FFF0H   SYMBOL    NUMBER   ---       P0_DIGITAL
      000000FFH   SYMBOL    NUMBER   ---       P0_INIT
      00000000H   SYMBOL    NUMBER   ---       P0_PUSHPULL
      000000FFH   SYMBOL    NUMBER   ---       P0_SKIP
      0000003FH   SYMBOL    NUMBER   ---       P1_DIGITAL
      00000000H   SYMBOL    NUMBER   ---       P1_INIT
      0000003FH   SYMBOL    NUMBER   ---       P1_PUSHPULL
      0000003FH   SYMBOL    NUMBER   ---       P1_SKIP
      00000001H   SYMBOL    NUMBER   ---       P2_PUSHPULL
      00000010H   SYMBOL    NUMBER   ---       P_
      0000000BH   SYMBOL    NUMBER   ---       PCA0_IRQN
      0100050EH   SYMBOL    CODE     NEAR LAB  PCA_INT
      01000557H   SYMBOL    CODE     NEAR LAB  PCA_INT_EXIT
      01000527H   SYMBOL    CODE     NEAR LAB  PCA_INT_HI_PWM
      0100052FH   SYMBOL    CODE     NEAR LAB  PCA_INT_SET_PWM
      0000009AH   SYMBOL    IDATA    BYTE      PGM_BEACON_DELAY
      00000099H   SYMBOL    IDATA    BYTE      PGM_BEACON_STRENGTH
      00000098H   SYMBOL    IDATA    BYTE      PGM_BEEP_STRENGTH
      00000002H   SYMBOL    NUMBER   ---       PGM_BIDIR
      00000001H   SYMBOL    NUMBER   ---       PGM_BIDIR_REV
      000000A4H   SYMBOL    IDATA    BYTE      PGM_BRAKE_ON_STOP
      0000009EH   SYMBOL    IDATA    BYTE      PGM_CENTER_THROTTLE
      00000092H   SYMBOL    IDATA    BYTE      PGM_COMM_TIMING
      0000009CH   SYMBOL    IDATA    BYTE      PGM_DEMAG_COMP
      00000000H   SYMBOL    NUMBER   ---       PGM_DIR_REV
      00000088H   SYMBOL    IDATA    BYTE      PGM_DIRECTION
      000000A1H   SYMBOL    IDATA    BYTE      PGM_ENABLE_POWER_PROT
      000000A0H   SYMBOL    IDATA    BYTE      PGM_ENABLE_TEMP_PROT
      0000008CH   SYMBOL    IDATA    BYTE      PGM_ENABLE_TX_PROGRAM
      00000089H   SYMBOL    IDATA    BYTE      PGM_INPUT_POL
      000000A5H   SYMBOL    IDATA    BYTE      PGM_LED_CONTROL
      00000097H   SYMBOL    IDATA    BYTE      PGM_MAX_THROTTLE
      00000096H   SYMBOL    IDATA    BYTE      PGM_MIN_THROTTLE
      01000D38H   SYMBOL    CODE     NEAR LAB  PGM_START
LX51 LINKER/LOCATER V4.66.87.0                                                        01/09/2018  16:51:33  PAGE 16


      00000086H   SYMBOL    IDATA    BYTE      PGM_STARTUP_PWR
      000000A6H   SYMBOL    IDATA    BYTE      PGM_STARTUP_PWR_DECODED
      00000008H   SYMBOL    NUMBER   ---       PMATCH_IRQN
      0000A001H   SYMBOL    NUMBER   ---       POLYNOM
      00000038H   SYMBOL    DATA     BYTE      POWER_ON_WAIT_CNT_H
      00000037H   SYMBOL    DATA     BYTE      POWER_ON_WAIT_CNT_L
      00000057H   SYMBOL    DATA     BYTE      POWER_PWM_REG_H
      00000056H   SYMBOL    DATA     BYTE      POWER_PWM_REG_L
      00000043H   SYMBOL    DATA     BYTE      PREV_COMM_H
      00000042H   SYMBOL    DATA     BYTE      PREV_COMM_L
      00000044H   SYMBOL    DATA     BYTE      PREV_COMM_X
      00000046H   SYMBOL    DATA     BYTE      PREV_PREV_COMM_H
      00000045H   SYMBOL    DATA     BYTE      PREV_PREV_COMM_L
      01001D0BH   SYMBOL    CODE     NEAR LAB  PRO3
      01001D17H   SYMBOL    CODE     NEAR LAB  PRO4
      01001D1DH   SYMBOL    CODE     NEAR LAB  PRO5
      01001D32H   SYMBOL    CODE     NEAR LAB  PRO6
      01000FB7H   SYMBOL    CODE     NEAR LAB  PROGRAM_BY_TX_CHECKED
      01000FA0H   SYMBOL    CODE     NEAR LAB  PROGRAM_BY_TX_ENTRY_LIMIT
      01000FA6H   SYMBOL    CODE     NEAR LAB  PROGRAM_BY_TX_ENTRY_STORE
      01000FAFH   SYMBOL    CODE     NEAR LAB  PROGRAM_BY_TX_ENTRY_WAIT
      01001D58H   SYMBOL    CODE     NEAR LAB  PUT1
      01001D6BH   SYMBOL    CODE     NEAR LAB  PUT2
      01001D77H   SYMBOL    CODE     NEAR LAB  PUT3
      01001D89H   SYMBOL    CODE     NEAR LAB  PUT4
      01001D6EH   SYMBOL    CODE     NEAR LAB  PUTC
      01001D52H   SYMBOL    CODE     NEAR LAB  PUTP
      01001D4AH   SYMBOL    CODE     NEAR LAB  PUTW
      0000005BH   SYMBOL    DATA     BYTE      PWM_LIMIT
      0000005DH   SYMBOL    DATA     BYTE      PWM_LIMIT_BEG
      0000005CH   SYMBOL    DATA     BYTE      PWM_LIMIT_BY_RPM
      00000011H   SYMBOL    NUMBER   ---       Q_
      00000012H   SYMBOL    NUMBER   ---       R_
      00000005H   SYMBOL    NUMBER   ---       RCP_DIR_REV
      00000004H   SYMBOL    NUMBER   ---       RCP_DSHOT
      00000006H   SYMBOL    NUMBER   ---       RCP_FULL_RANGE
      00000005H   SYMBOL    NUMBER   ---       RCP_IN
      00000003H   SYMBOL    NUMBER   ---       RCP_MULTISHOT
      00000001H   SYMBOL    NUMBER   ---       RCP_ONESHOT125
      00000002H   SYMBOL    NUMBER   ---       RCP_ONESHOT42
      00000022H   SYMBOL    DATA     BYTE      RCP_OUTSIDE_RANGE_CNT
      00000055H   SYMBOL    DATA     BYTE      RCP_STOP_CNT
      00000023H   SYMBOL    DATA     BYTE      RCP_TIMEOUT_CNTD
      00000000H   SYMBOL    NUMBER   ---       RCP_UPDATED
      01001D3CH   SYMBOL    CODE     NEAR LAB  RD1
      0100138AH   SYMBOL    CODE     NEAR LAB  READ_ALL_EEPROM_PARAMETERS
      010013BAH   SYMBOL    CODE     NEAR LAB  READ_EEPROM_BLOCK1
      010013C7H   SYMBOL    CODE     NEAR LAB  READ_EEPROM_BLOCK2
      0100140AH   SYMBOL    CODE     NEAR LAB  READ_EEPROM_BYTE
      010013D0H   SYMBOL    CODE     NEAR LAB  READ_EEPROM_EXIT
      010013B3H   SYMBOL    CODE     NEAR LAB  READ_EEPROM_READ
      010013A0H   SYMBOL    CODE     NEAR LAB  READ_EEPROM_STORE_DEFAULTS
      0100120EH   SYMBOL    CODE     NEAR LAB  READ_INITIAL_TEMP
      01001456H   SYMBOL    CODE     NEAR LAB  READ_TAG
      0100144DH   SYMBOL    CODE     NEAR LAB  READ_TAGS
      010019FDH   SYMBOL    CODE     NEAR LAB  RESET
      01001CC9H   SYMBOL    CODE     NEAR LAB  RST
      000000F1H   SYMBOL    DATA     ---       RTX_MDIN
      000000A4H   SYMBOL    DATA     ---       RTX_MDOUT
      00000005H   SYMBOL    NUMBER   ---       RTX_PIN
      00000080H   SYMBOL    DATA     ---       RTX_PORT
      000000D4H   SYMBOL    DATA     ---       RTX_SKIP
LX51 LINKER/LOCATER V4.66.87.0                                                        01/09/2018  16:51:33  PAGE 17


      01001252H   SYMBOL    CODE     NEAR LAB  RUN1
      0100125EH   SYMBOL    CODE     NEAR LAB  RUN2
      01001276H   SYMBOL    CODE     NEAR LAB  RUN3
      01001282H   SYMBOL    CODE     NEAR LAB  RUN4
      0100128EH   SYMBOL    CODE     NEAR LAB  RUN5
      0100129AH   SYMBOL    CODE     NEAR LAB  RUN6
      01001335H   SYMBOL    CODE     NEAR LAB  RUN6_BRAKE_DONE
      01001311H   SYMBOL    CODE     NEAR LAB  RUN6_CHECK_DIR
      01001321H   SYMBOL    CODE     NEAR LAB  RUN6_CHECK_DIR_CHANGE
      0100131CH   SYMBOL    CODE     NEAR LAB  RUN6_CHECK_DIR_REV
      0100132BH   SYMBOL    CODE     NEAR LAB  RUN6_CHECK_SPEED
      0100130DH   SYMBOL    CODE     NEAR LAB  RUN6_CHECK_TIMEOUT
      0100135CH   SYMBOL    CODE     NEAR LAB  RUN_TO_WAIT_FOR_POWER_ON
      0100137DH   SYMBOL    CODE     NEAR LAB  RUN_TO_WAIT_FOR_POWER_ON_BRAKE_DONE
      01001354H   SYMBOL    CODE     NEAR LAB  RUN_TO_WAIT_FOR_POWER_ON_FAIL
      0100135FH   SYMBOL    CODE     NEAR LAB  RUN_TO_WAIT_FOR_POWER_ON_STALL_DONE
      00000013H   SYMBOL    NUMBER   ---       S_
      01000BABH   SYMBOL    CODE     NEAR LAB  SCALE_THROTTLE_CAL
      01001CD1H   SYMBOL    CODE     NEAR LAB  SET4
      01001CD7H   SYMBOL    CODE     NEAR LAB  SET5
      01001CDDH   SYMBOL    CODE     NEAR LAB  SET6
      01000B3FH   SYMBOL    CODE     NEAR LAB  SET_DEFAULT_PARAMETERS
      010005B4H   SYMBOL    CODE     NEAR LAB  SET_PWM_LIMIT_HIGH_RPM
      010005C4H   SYMBOL    CODE     NEAR LAB  SET_PWM_LIMIT_HIGH_RPM_INC_LIMIT
      010005C5H   SYMBOL    CODE     NEAR LAB  SET_PWM_LIMIT_HIGH_RPM_STORE
      01000584H   SYMBOL    CODE     NEAR LAB  SET_PWM_LIMIT_LOW_RPM
      010005B1H   SYMBOL    CODE     NEAR LAB  SET_PWM_LIMIT_LOW_RPM_EXIT
      01000635H   SYMBOL    CODE     NEAR LAB  SET_STARTUP_PWM
      01001CCBH   SYMBOL    CODE     NEAR LAB  SETBUF
      01000977H   SYMBOL    CODE     NEAR LAB  SETUP_COMM_WAIT
      01000872H   SYMBOL    CODE     NEAR LAB  SETUP_ZC_SCAN_TIMEOUT
      01000896H   SYMBOL    CODE     NEAR LAB  SETUP_ZC_SCAN_TIMEOUT_STARTUP_DONE
      000000E8H   SYMBOL    NUMBER   ---       SIGNATURE_001
      000000B1H   SYMBOL    NUMBER   ---       SIGNATURE_002
      00000065H   SYMBOL    DATA     BYTE      SKIP_T2_INT
      00000007H   SYMBOL    NUMBER   ---       SMBUS0_IRQN
      00000006H   SYMBOL    NUMBER   ---       SPI0_IRQN
      0000003CH   SYMBOL    DATA     BYTE      STALL_CNT
      010005CAH   SYMBOL    CODE     NEAR LAB  START_ADC_CONVERSION
      00000039H   SYMBOL    DATA     BYTE      STARTUP_CNT
      00000000H   SYMBOL    NUMBER   ---       STARTUP_PHASE
      01000080H   SYMBOL    CODE     BYTE      STARTUP_POWER_TABLE
      0000003AH   SYMBOL    DATA     BYTE      STARTUP_ZC_TIMEOUT_CNTD
      01000811H   SYMBOL    CODE     NEAR LAB  STORE_TIMES_DECREASE
      01000864H   SYMBOL    CODE     NEAR LAB  STORE_TIMES_DECREASE_FAST
      01000832H   SYMBOL    CODE     NEAR LAB  STORE_TIMES_EXIT
      01000802H   SYMBOL    CODE     NEAR LAB  STORE_TIMES_INCREASE
      0100085BH   SYMBOL    CODE     NEAR LAB  STORE_TIMES_INCREASE_FAST
      010007FCH   SYMBOL    CODE     NEAR LAB  STORE_TIMES_UP_OR_DOWN
      01000855H   SYMBOL    CODE     NEAR LAB  STORE_TIMES_UP_OR_DOWN_FAST
      00000030H   SYMBOL    NUMBER   ---       SUCCESS
      01001477H   SYMBOL    CODE     NEAR LAB  SUCCESS_BEEP
      010014A6H   SYMBOL    CODE     NEAR LAB  SUCCESS_BEEP_INVERTED
      01000B2FH   SYMBOL    CODE     NEAR LAB  SWITCH_POWER_OFF
      0100023AH   SYMBOL    CODE     NEAR LAB  T1_DSHOT_INC_CMD_CNT
      01000230H   SYMBOL    CODE     NEAR LAB  T1_DSHOT_SET_CMD
      0100008DH   SYMBOL    CODE     NEAR LAB  T1_INT
      01000255H   SYMBOL    CODE     NEAR LAB  T1_INT_BIDIR_FWD
      0100025AH   SYMBOL    CODE     NEAR LAB  T1_INT_BIDIR_REV_CHK
      010000EFH   SYMBOL    CODE     NEAR LAB  T1_INT_DECODE
      01000175H   SYMBOL    CODE     NEAR LAB  T1_INT_DECODE_LSB
      010000FAH   SYMBOL    CODE     NEAR LAB  T1_INT_DECODE_MSB
LX51 LINKER/LOCATER V4.66.87.0                                                        01/09/2018  16:51:33  PAGE 18


      010002CCH   SYMBOL    CODE     NEAR LAB  T1_INT_FRAME_FAIL
      010000C9H   SYMBOL    CODE     NEAR LAB  T1_INT_FRAME_TIME_SCALED
      0100016CH   SYMBOL    CODE     NEAR LAB  T1_INT_LSB_FAIL
      010000F1H   SYMBOL    CODE     NEAR LAB  T1_INT_MSB_FAIL
      01000266H   SYMBOL    CODE     NEAR LAB  T1_INT_NOT_BIDIR
      01000297H   SYMBOL    CODE     NEAR LAB  T1_INT_STARTUP_BOOST_STALL
      010002A1H   SYMBOL    CODE     NEAR LAB  T1_INT_STARTUP_BOOSTED
      010001FDH   SYMBOL    CODE     NEAR LAB  T1_INT_XOR_OK
      010002B6H   SYMBOL    CODE     NEAR LAB  T1_INT_ZERO_RCP_CHECKED
      0100023CH   SYMBOL    CODE     NEAR LAB  T1_NORMAL_RANGE
      010002D5H   SYMBOL    CODE     NEAR LAB  T2_INT
      010002F8H   SYMBOL    CODE     NEAR LAB  T2_INT_EXIT
      010002EDH   SYMBOL    CODE     NEAR LAB  T2_INT_RCP_STOP
      010002FDH   SYMBOL    CODE     NEAR LAB  T3_INT
      00000000H   SYMBOL    NUMBER   ---       T3_PENDING
      00000014H   SYMBOL    NUMBER   ---       T_
      010005FDH   SYMBOL    CODE     NEAR LAB  TEMP_AVERAGE_DEC
      01000600H   SYMBOL    CODE     NEAR LAB  TEMP_AVERAGE_INC
      010005F1H   SYMBOL    CODE     NEAR LAB  TEMP_AVERAGE_INC_DEC
      01000607H   SYMBOL    CODE     NEAR LAB  TEMP_AVERAGE_UPDATED
      01000605H   SYMBOL    CODE     NEAR LAB  TEMP_AVERAGE_UPDATED_LOAD_ACC
      01000629H   SYMBOL    CODE     NEAR LAB  TEMP_CHECK_EXIT
      00000031H   SYMBOL    NUMBER   ---       TEMP_LIMIT
      00000009H   SYMBOL    NUMBER   ---       TEMP_LIMIT_STEP
      00000069H   SYMBOL    DATA     BYTE      TEMP_PROT_LIMIT
      000000D0H   SYMBOL    IDATA    BYTE      TEMP_STORAGE
      01000CCCH   SYMBOL    CODE     NEAR LAB  TEST_THROTTLE_GAIN
      01000CD9H   SYMBOL    CODE     NEAR LAB  TEST_THROTTLE_GAIN_MULT
      00000060H   SYMBOL    DATA     BYTE      THROTTLE_GAIN
      00000062H   SYMBOL    DATA     BYTE      THROTTLE_GAIN_BD_REV
      00000063H   SYMBOL    DATA     BYTE      THROTTLE_GAIN_BD_REV_M
      00000061H   SYMBOL    DATA     BYTE      THROTTLE_GAIN_M
      01000F36H   SYMBOL    CODE     NEAR LAB  THROTTLE_HIGH_CAL
      01000F66H   SYMBOL    CODE     NEAR LAB  THROTTLE_LOW_CAL
      01000F64H   SYMBOL    CODE     NEAR LAB  THROTTLE_LOW_CAL_START
      00000001H   SYMBOL    NUMBER   ---       TIMER0_IRQN
      00000040H   SYMBOL    DATA     BYTE      TIMER0_X
      00000003H   SYMBOL    NUMBER   ---       TIMER1_IRQN
      00000005H   SYMBOL    NUMBER   ---       TIMER2_IRQN
      00000041H   SYMBOL    DATA     BYTE      TIMER2_X
      0000000EH   SYMBOL    NUMBER   ---       TIMER3_IRQN
      00000015H   SYMBOL    NUMBER   ---       U_
      00000004H   SYMBOL    NUMBER   ---       UART0_IRQN
      0000001AH   SYMBOL    NUMBER   ---       UART_LOOP
      00000016H   SYMBOL    NUMBER   ---       V_
      01000EF9H   SYMBOL    CODE     NEAR LAB  VALIDATE_RCP_START
      00000017H   SYMBOL    NUMBER   ---       W_
      01001DE1H   SYMBOL    CODE     NEAR LAB  WAIT1
      01000571H   SYMBOL    CODE     NEAR LAB  WAIT100MS
      01000569H   SYMBOL    CODE     NEAR LAB  WAIT10MS
      01000561H   SYMBOL    CODE     NEAR LAB  WAIT1MS
      0100146FH   SYMBOL    CODE     NEAR LAB  WAIT1S
      01001471H   SYMBOL    CODE     NEAR LAB  WAIT1S_LOOP
      01000575H   SYMBOL    CODE     NEAR LAB  WAIT200MS
      0100056DH   SYMBOL    CODE     NEAR LAB  WAIT30MS
      01000565H   SYMBOL    CODE     NEAR LAB  WAIT3MS
      010007A7H   SYMBOL    CODE     NEAR LAB  WAIT_ADVANCE_TIMING
      0100086AH   SYMBOL    CODE     NEAR LAB  WAIT_BEFORE_ZC_SCAN
      010008B1H   SYMBOL    CODE     NEAR LAB  WAIT_BEFORE_ZC_SCAN_EXIT
      010009B3H   SYMBOL    CODE     NEAR LAB  WAIT_FOR_COMM
      010009EAH   SYMBOL    CODE     NEAR LAB  WAIT_FOR_COMM_WAIT
      010008C2H   SYMBOL    CODE     NEAR LAB  WAIT_FOR_COMP_OUT_HIGH
LX51 LINKER/LOCATER V4.66.87.0                                                        01/09/2018  16:51:33  PAGE 19


      010008B2H   SYMBOL    CODE     NEAR LAB  WAIT_FOR_COMP_OUT_LOW
      010008D0H   SYMBOL    CODE     NEAR LAB  WAIT_FOR_COMP_OUT_START
      01001C48H   SYMBOL    CODE     NEAR LAB  WAIT_FOR_LOW
      01000FD9H   SYMBOL    CODE     NEAR LAB  WAIT_FOR_POWER_ON
      01000FDEH   SYMBOL    CODE     NEAR LAB  WAIT_FOR_POWER_ON_LOOP
      01001024H   SYMBOL    CODE     NEAR LAB  WAIT_FOR_POWER_ON_NO_BEEP
      0100103FH   SYMBOL    CODE     NEAR LAB  WAIT_FOR_POWER_ON_NONZERO
      0100102EH   SYMBOL    CODE     NEAR LAB  WAIT_FOR_POWER_ON_NOT_MISSING
      01001DDBH   SYMBOL    CODE     NEAR LAB  WAITF
      01001DDFH   SYMBOL    CODE     NEAR LAB  WAITH
      0100057BH   SYMBOL    CODE     NEAR LAB  WAITXMS_M
      01000579H   SYMBOL    CODE     NEAR LAB  WAITXMS_O
      010013EFH   SYMBOL    CODE     NEAR LAB  WRITE_EEPROM_BLOCK1
      010013FCH   SYMBOL    CODE     NEAR LAB  WRITE_EEPROM_BLOCK2
      0100140EH   SYMBOL    CODE     NEAR LAB  WRITE_EEPROM_BYTE
      0100140FH   SYMBOL    CODE     NEAR LAB  WRITE_EEPROM_BYTE_FROM_ACC
      0100143EH   SYMBOL    CODE     NEAR LAB  WRITE_EEPROM_SIGNATURE
      01001467H   SYMBOL    CODE     NEAR LAB  WRITE_TAG
      01001460H   SYMBOL    CODE     NEAR LAB  WRITE_TAGS
      0000004BH   SYMBOL    DATA     BYTE      WT_ADV_START_H
      0000004AH   SYMBOL    DATA     BYTE      WT_ADV_START_L
      00000051H   SYMBOL    DATA     BYTE      WT_COMM_START_H
      00000050H   SYMBOL    DATA     BYTE      WT_COMM_START_L
      0000004DH   SYMBOL    DATA     BYTE      WT_ZC_SCAN_START_H
      0000004CH   SYMBOL    DATA     BYTE      WT_ZC_SCAN_START_L
      0000004FH   SYMBOL    DATA     BYTE      WT_ZC_TOUT_START_H
      0000004EH   SYMBOL    DATA     BYTE      WT_ZC_TOUT_START_L
      017D7840H   SYMBOL    NUMBER   ---       XTAL

      01000000H   BLOCK     CODE     NEAR LAB  LVL=0
      01000000H   LINE      CODE     ---       #535
      ---         BLOCKEND  ---      ---       LVL=0

      01000003H   BLOCK     CODE     NEAR LAB  LVL=0
      01000003H   LINE      CODE     ---       #535
      ---         BLOCKEND  ---      ---       LVL=0

      01000013H   BLOCK     CODE     NEAR LAB  LVL=0
      01000013H   LINE      CODE     ---       #535
      ---         BLOCKEND  ---      ---       LVL=0

      0100001BH   BLOCK     CODE     NEAR LAB  LVL=0
      0100001BH   LINE      CODE     ---       #535
      ---         BLOCKEND  ---      ---       LVL=0

      0100002BH   BLOCK     CODE     NEAR LAB  LVL=0
      0100002BH   LINE      CODE     ---       #535
      ---         BLOCKEND  ---      ---       LVL=0

      0100005BH   BLOCK     CODE     NEAR LAB  LVL=0
      0100005BH   LINE      CODE     ---       #535
      ---         BLOCKEND  ---      ---       LVL=0

      01000073H   BLOCK     CODE     NEAR LAB  LVL=0
      01000073H   LINE      CODE     ---       #535
      ---         BLOCKEND  ---      ---       LVL=0

      0100008DH   BLOCK     CODE     NEAR LAB  LVL=0
      0100008DH   LINE      CODE     ---       #567
      0100008FH   LINE      CODE     ---       #568
      01000091H   LINE      CODE     ---       #569
      01000094H   LINE      CODE     ---       #570
LX51 LINKER/LOCATER V4.66.87.0                                                        01/09/2018  16:51:33  PAGE 20


      01000096H   LINE      CODE     ---       #571
      01000099H   LINE      CODE     ---       #572
      0100009BH   LINE      CODE     ---       #573
      0100009DH   LINE      CODE     ---       #574
      0100009FH   LINE      CODE     ---       #575
      010000A1H   LINE      CODE     ---       #576
      010000A3H   LINE      CODE     ---       #577
      010000A5H   LINE      CODE     ---       #578
      010000A7H   LINE      CODE     ---       #579
      010000A9H   LINE      CODE     ---       #580
      010000ABH   LINE      CODE     ---       #582
      010000AEH   LINE      CODE     ---       #584
      010000AFH   LINE      CODE     ---       #585
      010000B0H   LINE      CODE     ---       #586
      010000B2H   LINE      CODE     ---       #587
      010000B3H   LINE      CODE     ---       #588
      010000B4H   LINE      CODE     ---       #589
      010000B6H   LINE      CODE     ---       #590
      010000B7H   LINE      CODE     ---       #592
      010000B8H   LINE      CODE     ---       #593
      010000B9H   LINE      CODE     ---       #594
      010000BAH   LINE      CODE     ---       #595
      010000BBH   LINE      CODE     ---       #596
      010000BCH   LINE      CODE     ---       #597
      010000BDH   LINE      CODE     ---       #598
      010000BEH   LINE      CODE     ---       #599
      010000C0H   LINE      CODE     ---       #600
      010000C2H   LINE      CODE     ---       #602
      010000C3H   LINE      CODE     ---       #603
      010000C4H   LINE      CODE     ---       #604
      010000C5H   LINE      CODE     ---       #605
      010000C6H   LINE      CODE     ---       #606
      010000C7H   LINE      CODE     ---       #607
      010000C8H   LINE      CODE     ---       #608
      010000C9H   LINE      CODE     ---       #611
      010000CAH   LINE      CODE     ---       #612
      010000CCH   LINE      CODE     ---       #613
      010000CDH   LINE      CODE     ---       #614
      010000CFH   LINE      CODE     ---       #615
      010000D1H   LINE      CODE     ---       #616
      010000D3H   LINE      CODE     ---       #617
      010000D5H   LINE      CODE     ---       #620
      010000D7H   LINE      CODE     ---       #621
      010000DAH   LINE      CODE     ---       #624
      010000DCH   LINE      CODE     ---       #625
      010000DEH   LINE      CODE     ---       #626
      010000E0H   LINE      CODE     ---       #627
      010000E2H   LINE      CODE     ---       #628
      010000E5H   LINE      CODE     ---       #629
      010000E7H   LINE      CODE     ---       #630
      010000E9H   LINE      CODE     ---       #631
      010000EBH   LINE      CODE     ---       #633
      010000ECH   LINE      CODE     ---       #634
      010000EDH   LINE      CODE     ---       #635
      010000EEH   LINE      CODE     ---       #636
      010000EFH   LINE      CODE     ---       #639
      010000F1H   LINE      CODE     ---       #642
      010000F4H   LINE      CODE     ---       #643
      010000F6H   LINE      CODE     ---       #644
      010000F8H   LINE      CODE     ---       #645
      010000FAH   LINE      CODE     ---       #649
      01000116H   LINE      CODE     ---       #650
LX51 LINKER/LOCATER V4.66.87.0                                                        01/09/2018  16:51:33  PAGE 21


      01000132H   LINE      CODE     ---       #651
      0100014EH   LINE      CODE     ---       #652
      0100016AH   LINE      CODE     ---       #653
      0100016CH   LINE      CODE     ---       #656
      0100016FH   LINE      CODE     ---       #657
      01000171H   LINE      CODE     ---       #658
      01000173H   LINE      CODE     ---       #659
      01000175H   LINE      CODE     ---       #663
      01000191H   LINE      CODE     ---       #664
      010001ADH   LINE      CODE     ---       #665
      010001C9H   LINE      CODE     ---       #666
      010001E5H   LINE      CODE     ---       #668
      010001E6H   LINE      CODE     ---       #669
      010001E7H   LINE      CODE     ---       #670
      010001E8H   LINE      CODE     ---       #671
      010001E9H   LINE      CODE     ---       #672
      010001EBH   LINE      CODE     ---       #673
      010001ECH   LINE      CODE     ---       #674
      010001EDH   LINE      CODE     ---       #675
      010001EEH   LINE      CODE     ---       #676
      010001F0H   LINE      CODE     ---       #677
      010001F1H   LINE      CODE     ---       #678
      010001F2H   LINE      CODE     ---       #679
      010001F4H   LINE      CODE     ---       #681
      010001F7H   LINE      CODE     ---       #682
      010001F9H   LINE      CODE     ---       #683
      010001FBH   LINE      CODE     ---       #684
      010001FDH   LINE      CODE     ---       #688
      010001FEH   LINE      CODE     ---       #689
      010001FFH   LINE      CODE     ---       #690
      01000200H   LINE      CODE     ---       #691
      01000202H   LINE      CODE     ---       #692
      01000203H   LINE      CODE     ---       #693
      01000204H   LINE      CODE     ---       #694
      01000205H   LINE      CODE     ---       #695
      01000206H   LINE      CODE     ---       #696
      01000208H   LINE      CODE     ---       #697
      01000209H   LINE      CODE     ---       #698
      0100020AH   LINE      CODE     ---       #699
      0100020BH   LINE      CODE     ---       #700
      0100020CH   LINE      CODE     ---       #701
      0100020DH   LINE      CODE     ---       #702
      0100020FH   LINE      CODE     ---       #703
      01000210H   LINE      CODE     ---       #705
      01000211H   LINE      CODE     ---       #706
      01000212H   LINE      CODE     ---       #707
      01000213H   LINE      CODE     ---       #708
      01000215H   LINE      CODE     ---       #709
      01000216H   LINE      CODE     ---       #710
      01000217H   LINE      CODE     ---       #711
      01000219H   LINE      CODE     ---       #712
      0100021AH   LINE      CODE     ---       #713
      0100021CH   LINE      CODE     ---       #715
      0100021DH   LINE      CODE     ---       #716
      0100021EH   LINE      CODE     ---       #717
      01000220H   LINE      CODE     ---       #718
      01000222H   LINE      CODE     ---       #719
      01000224H   LINE      CODE     ---       #720
      01000226H   LINE      CODE     ---       #722
      01000227H   LINE      CODE     ---       #723
      01000228H   LINE      CODE     ---       #724
      0100022AH   LINE      CODE     ---       #726
LX51 LINKER/LOCATER V4.66.87.0                                                        01/09/2018  16:51:33  PAGE 22


      0100022BH   LINE      CODE     ---       #727
      0100022CH   LINE      CODE     ---       #728
      0100022EH   LINE      CODE     ---       #729
      01000230H   LINE      CODE     ---       #732
      01000231H   LINE      CODE     ---       #733
      01000233H   LINE      CODE     ---       #734
      01000236H   LINE      CODE     ---       #735
      01000238H   LINE      CODE     ---       #736
      0100023AH   LINE      CODE     ---       #739
      0100023CH   LINE      CODE     ---       #743
      0100023FH   LINE      CODE     ---       #746
      01000240H   LINE      CODE     ---       #747
      01000241H   LINE      CODE     ---       #748
      01000243H   LINE      CODE     ---       #749
      01000244H   LINE      CODE     ---       #750
      01000245H   LINE      CODE     ---       #751
      01000247H   LINE      CODE     ---       #752
      01000248H   LINE      CODE     ---       #753
      0100024AH   LINE      CODE     ---       #755
      0100024BH   LINE      CODE     ---       #756
      0100024CH   LINE      CODE     ---       #757
      0100024DH   LINE      CODE     ---       #758
      0100024EH   LINE      CODE     ---       #759
      01000251H   LINE      CODE     ---       #761
      01000253H   LINE      CODE     ---       #762
      01000255H   LINE      CODE     ---       #765
      01000258H   LINE      CODE     ---       #767
      0100025AH   LINE      CODE     ---       #770
      0100025DH   LINE      CODE     ---       #772
      0100025FH   LINE      CODE     ---       #774
      01000260H   LINE      CODE     ---       #775
      01000261H   LINE      CODE     ---       #776
      01000262H   LINE      CODE     ---       #777
      01000263H   LINE      CODE     ---       #778
      01000264H   LINE      CODE     ---       #779
      01000265H   LINE      CODE     ---       #780
      01000266H   LINE      CODE     ---       #783
      01000267H   LINE      CODE     ---       #784
      01000268H   LINE      CODE     ---       #785
      01000269H   LINE      CODE     ---       #786
      0100026AH   LINE      CODE     ---       #787
      0100026BH   LINE      CODE     ---       #789
      0100026CH   LINE      CODE     ---       #790
      0100026DH   LINE      CODE     ---       #791
      0100026EH   LINE      CODE     ---       #792
      0100026FH   LINE      CODE     ---       #793
      01000270H   LINE      CODE     ---       #794
      01000271H   LINE      CODE     ---       #795
      01000272H   LINE      CODE     ---       #797
      01000273H   LINE      CODE     ---       #798
      01000274H   LINE      CODE     ---       #799
      01000275H   LINE      CODE     ---       #800
      01000276H   LINE      CODE     ---       #801
      01000278H   LINE      CODE     ---       #802
      01000279H   LINE      CODE     ---       #803
      0100027CH   LINE      CODE     ---       #805
      0100027EH   LINE      CODE     ---       #806
      01000280H   LINE      CODE     ---       #809
      01000282H   LINE      CODE     ---       #810
      01000284H   LINE      CODE     ---       #811
      01000286H   LINE      CODE     ---       #813
      01000289H   LINE      CODE     ---       #815
LX51 LINKER/LOCATER V4.66.87.0                                                        01/09/2018  16:51:33  PAGE 23


      0100028BH   LINE      CODE     ---       #816
      0100028CH   LINE      CODE     ---       #817
      0100028DH   LINE      CODE     ---       #818
      0100028EH   LINE      CODE     ---       #819
      01000290H   LINE      CODE     ---       #821
      01000291H   LINE      CODE     ---       #822
      01000292H   LINE      CODE     ---       #823
      01000293H   LINE      CODE     ---       #824
      01000295H   LINE      CODE     ---       #826
      01000296H   LINE      CODE     ---       #827
      01000297H   LINE      CODE     ---       #830
      01000299H   LINE      CODE     ---       #831
      0100029AH   LINE      CODE     ---       #832
      0100029BH   LINE      CODE     ---       #833
      0100029CH   LINE      CODE     ---       #834
      0100029DH   LINE      CODE     ---       #835
      0100029EH   LINE      CODE     ---       #836
      010002A0H   LINE      CODE     ---       #837
      010002A1H   LINE      CODE     ---       #841
      010002A2H   LINE      CODE     ---       #842
      010002A3H   LINE      CODE     ---       #843
      010002A4H   LINE      CODE     ---       #844
      010002A5H   LINE      CODE     ---       #845
      010002A7H   LINE      CODE     ---       #846
      010002A8H   LINE      CODE     ---       #847
      010002A9H   LINE      CODE     ---       #848
      010002AAH   LINE      CODE     ---       #849
      010002ABH   LINE      CODE     ---       #850
      010002ADH   LINE      CODE     ---       #851
      010002AEH   LINE      CODE     ---       #852
      010002AFH   LINE      CODE     ---       #853
      010002B1H   LINE      CODE     ---       #855
      010002B2H   LINE      CODE     ---       #856
      010002B4H   LINE      CODE     ---       #858
      010002B6H   LINE      CODE     ---       #861
      010002B7H   LINE      CODE     ---       #864
      010002B8H   LINE      CODE     ---       #865
      010002B9H   LINE      CODE     ---       #866
      010002BAH   LINE      CODE     ---       #867
      010002BBH   LINE      CODE     ---       #868
      010002BCH   LINE      CODE     ---       #869
      010002BDH   LINE      CODE     ---       #871
      010002C0H   LINE      CODE     ---       #872
      010002C2H   LINE      CODE     ---       #873
      010002C4H   LINE      CODE     ---       #875
      010002C6H   LINE      CODE     ---       #876
      010002C8H   LINE      CODE     ---       #878
      010002CAH   LINE      CODE     ---       #880
      010002CCH   LINE      CODE     ---       #883
      010002CFH   LINE      CODE     ---       #884
      010002D1H   LINE      CODE     ---       #885
      010002D3H   LINE      CODE     ---       #886
      010002D5H   LINE      CODE     ---       #898
      010002D7H   LINE      CODE     ---       #899
      010002D9H   LINE      CODE     ---       #900
      010002DBH   LINE      CODE     ---       #901
      010002DDH   LINE      CODE     ---       #917
      010002DFH   LINE      CODE     ---       #918
      010002E1H   LINE      CODE     ---       #920
      010002E3H   LINE      CODE     ---       #923
      010002E4H   LINE      CODE     ---       #924
      010002E6H   LINE      CODE     ---       #925
LX51 LINKER/LOCATER V4.66.87.0                                                        01/09/2018  16:51:33  PAGE 24


      010002E8H   LINE      CODE     ---       #928
      010002EBH   LINE      CODE     ---       #929
      010002EDH   LINE      CODE     ---       #933
      010002EFH   LINE      CODE     ---       #934
      010002F1H   LINE      CODE     ---       #935
      010002F3H   LINE      CODE     ---       #936
      010002F5H   LINE      CODE     ---       #938
      010002F8H   LINE      CODE     ---       #941
      010002FAH   LINE      CODE     ---       #942
      010002FCH   LINE      CODE     ---       #943
      010002FDH   LINE      CODE     ---       #956
      010002FFH   LINE      CODE     ---       #957
      01000302H   LINE      CODE     ---       #958
      01000305H   LINE      CODE     ---       #959
      01000308H   LINE      CODE     ---       #960
      0100030AH   LINE      CODE     ---       #961
      0100030DH   LINE      CODE     ---       #962
      0100030FH   LINE      CODE     ---       #963
      01000310H   LINE      CODE     ---       #974
      01000312H   LINE      CODE     ---       #975
      01000314H   LINE      CODE     ---       #977
      01000317H   LINE      CODE     ---       #979
      0100031AH   LINE      CODE     ---       #980
      0100031BH   LINE      CODE     ---       #981
      0100031CH   LINE      CODE     ---       #982
      0100031EH   LINE      CODE     ---       #983
      0100031FH   LINE      CODE     ---       #987
      01000321H   LINE      CODE     ---       #988
      01000323H   LINE      CODE     ---       #989
      01000326H   LINE      CODE     ---       #990
      01000328H   LINE      CODE     ---       #991
      0100032AH   LINE      CODE     ---       #992
      0100032CH   LINE      CODE     ---       #993
      0100032EH   LINE      CODE     ---       #994
      01000330H   LINE      CODE     ---       #996
      01000340H   LINE      CODE     ---       #998
      01000343H   LINE      CODE     ---       #1001
      01000344H   LINE      CODE     ---       #1002
      01000345H   LINE      CODE     ---       #1003
      01000347H   LINE      CODE     ---       #1004
      01000348H   LINE      CODE     ---       #1005
      01000349H   LINE      CODE     ---       #1006
      0100034AH   LINE      CODE     ---       #1007
      0100034CH   LINE      CODE     ---       #1008
      0100034DH   LINE      CODE     ---       #1009
      0100034EH   LINE      CODE     ---       #1010
      0100034FH   LINE      CODE     ---       #1011
      01000350H   LINE      CODE     ---       #1012
      01000351H   LINE      CODE     ---       #1013
      01000352H   LINE      CODE     ---       #1014
      01000353H   LINE      CODE     ---       #1015
      01000354H   LINE      CODE     ---       #1016
      01000355H   LINE      CODE     ---       #1017
      01000356H   LINE      CODE     ---       #1018
      01000357H   LINE      CODE     ---       #1019
      01000358H   LINE      CODE     ---       #1020
      01000359H   LINE      CODE     ---       #1021
      0100035AH   LINE      CODE     ---       #1022
      0100035BH   LINE      CODE     ---       #1023
      0100035CH   LINE      CODE     ---       #1024
      0100035FH   LINE      CODE     ---       #1030
      01000360H   LINE      CODE     ---       #1031
LX51 LINKER/LOCATER V4.66.87.0                                                        01/09/2018  16:51:33  PAGE 25


      01000362H   LINE      CODE     ---       #1034
      01000365H   LINE      CODE     ---       #1037
      01000366H   LINE      CODE     ---       #1038
      01000367H   LINE      CODE     ---       #1039
      01000368H   LINE      CODE     ---       #1040
      01000369H   LINE      CODE     ---       #1041
      0100036AH   LINE      CODE     ---       #1042
      0100036BH   LINE      CODE     ---       #1043
      0100036CH   LINE      CODE     ---       #1044
      0100036DH   LINE      CODE     ---       #1045
      0100036EH   LINE      CODE     ---       #1046
      0100036FH   LINE      CODE     ---       #1047
      01000371H   LINE      CODE     ---       #1048
      01000372H   LINE      CODE     ---       #1049
      01000374H   LINE      CODE     ---       #1052
      01000377H   LINE      CODE     ---       #1055
      01000378H   LINE      CODE     ---       #1056
      0100037BH   LINE      CODE     ---       #1057
      0100037CH   LINE      CODE     ---       #1058
      0100037EH   LINE      CODE     ---       #1059
      0100037FH   LINE      CODE     ---       #1060
      01000382H   LINE      CODE     ---       #1061
      01000383H   LINE      CODE     ---       #1062
      01000384H   LINE      CODE     ---       #1063
      01000385H   LINE      CODE     ---       #1064
      01000387H   LINE      CODE     ---       #1065
      01000389H   LINE      CODE     ---       #1066
      0100038AH   LINE      CODE     ---       #1067
      0100038CH   LINE      CODE     ---       #1083
      01000390H   LINE      CODE     ---       #1089
      01000391H   LINE      CODE     ---       #1090
      01000393H   LINE      CODE     ---       #1091
      01000397H   LINE      CODE     ---       #1097
      01000398H   LINE      CODE     ---       #1098
      01000399H   LINE      CODE     ---       #1099
      0100039AH   LINE      CODE     ---       #1100
      0100039CH   LINE      CODE     ---       #1101
      0100039EH   LINE      CODE     ---       #1102
      0100039FH   LINE      CODE     ---       #1103
      010003A0H   LINE      CODE     ---       #1104
      010003A1H   LINE      CODE     ---       #1105
      010003A2H   LINE      CODE     ---       #1106
      010003A3H   LINE      CODE     ---       #1107
      010003A4H   LINE      CODE     ---       #1108
      010003A5H   LINE      CODE     ---       #1109
      010003A6H   LINE      CODE     ---       #1110
      010003A7H   LINE      CODE     ---       #1111
      010003A8H   LINE      CODE     ---       #1112
      010003A9H   LINE      CODE     ---       #1113
      010003AAH   LINE      CODE     ---       #1114
      010003ABH   LINE      CODE     ---       #1118
      010003ACH   LINE      CODE     ---       #1119
      010003AFH   LINE      CODE     ---       #1125
      010003B1H   LINE      CODE     ---       #1128
      010003B2H   LINE      CODE     ---       #1129
      010003B5H   LINE      CODE     ---       #1135
      010003B8H   LINE      CODE     ---       #1141
      010003BAH   LINE      CODE     ---       #1144
      010003BCH   LINE      CODE     ---       #1145
      010003BEH   LINE      CODE     ---       #1146
      010003C0H   LINE      CODE     ---       #1148
      010003C2H   LINE      CODE     ---       #1150
LX51 LINKER/LOCATER V4.66.87.0                                                        01/09/2018  16:51:33  PAGE 26


      010003C3H   LINE      CODE     ---       #1151
      010003C5H   LINE      CODE     ---       #1152
      010003C7H   LINE      CODE     ---       #1153
      010003C9H   LINE      CODE     ---       #1154
      010003CBH   LINE      CODE     ---       #1156
      010003CEH   LINE      CODE     ---       #1157
      010003D0H   LINE      CODE     ---       #1161
      010003D2H   LINE      CODE     ---       #1162
      010003D4H   LINE      CODE     ---       #1164
      010003D6H   LINE      CODE     ---       #1167
      010003D9H   LINE      CODE     ---       #1169
      010003DDH   LINE      CODE     ---       #1175
      010003DFH   LINE      CODE     ---       #1178
      010003E1H   LINE      CODE     ---       #1179
      010003E3H   LINE      CODE     ---       #1180
      010003E6H   LINE      CODE     ---       #1182
      010003E8H   LINE      CODE     ---       #1183
      010003EAH   LINE      CODE     ---       #1186
      010003EBH   LINE      CODE     ---       #1187
      010003ECH   LINE      CODE     ---       #1188
      010003EDH   LINE      CODE     ---       #1189
      010003EEH   LINE      CODE     ---       #1190
      010003EFH   LINE      CODE     ---       #1191
      010003F0H   LINE      CODE     ---       #1192
      010003F1H   LINE      CODE     ---       #1193
      010003F3H   LINE      CODE     ---       #1194
      010003F5H   LINE      CODE     ---       #1195
      010003F7H   LINE      CODE     ---       #1196
      010003FAH   LINE      CODE     ---       #1198
      010003FCH   LINE      CODE     ---       #1200
      010003FFH   LINE      CODE     ---       #1202
      01000401H   LINE      CODE     ---       #1203
      01000403H   LINE      CODE     ---       #1206
      01000406H   LINE      CODE     ---       #1208
      01000408H   LINE      CODE     ---       #1211
      0100040BH   LINE      CODE     ---       #1213
      0100040DH   LINE      CODE     ---       #1214
      0100040FH   LINE      CODE     ---       #1216
      01000412H   LINE      CODE     ---       #1218
      01000414H   LINE      CODE     ---       #1220
      01000415H   LINE      CODE     ---       #1221
      01000416H   LINE      CODE     ---       #1222
      01000417H   LINE      CODE     ---       #1223
      01000418H   LINE      CODE     ---       #1224
      01000419H   LINE      CODE     ---       #1225
      0100041AH   LINE      CODE     ---       #1226
      0100041BH   LINE      CODE     ---       #1227
      0100041DH   LINE      CODE     ---       #1228
      0100041FH   LINE      CODE     ---       #1230
      01000420H   LINE      CODE     ---       #1231
      01000421H   LINE      CODE     ---       #1232
      01000423H   LINE      CODE     ---       #1233
      01000424H   LINE      CODE     ---       #1234
      01000425H   LINE      CODE     ---       #1235
      01000426H   LINE      CODE     ---       #1236
      01000428H   LINE      CODE     ---       #1237
      01000429H   LINE      CODE     ---       #1240
      0100042AH   LINE      CODE     ---       #1241
      0100042DH   LINE      CODE     ---       #1247
      0100042EH   LINE      CODE     ---       #1248
      0100042FH   LINE      CODE     ---       #1249
      01000431H   LINE      CODE     ---       #1250
LX51 LINKER/LOCATER V4.66.87.0                                                        01/09/2018  16:51:33  PAGE 27


      01000432H   LINE      CODE     ---       #1251
      01000434H   LINE      CODE     ---       #1253
      01000436H   LINE      CODE     ---       #1254
      01000438H   LINE      CODE     ---       #1255
      0100043AH   LINE      CODE     ---       #1256
      0100043CH   LINE      CODE     ---       #1259
      0100043EH   LINE      CODE     ---       #1260
      01000440H   LINE      CODE     ---       #1263
      01000442H   LINE      CODE     ---       #1264
      01000444H   LINE      CODE     ---       #1265
      01000446H   LINE      CODE     ---       #1266
      01000448H   LINE      CODE     ---       #1270
      0100044AH   LINE      CODE     ---       #1271
      0100044CH   LINE      CODE     ---       #1272
      0100044EH   LINE      CODE     ---       #1274
      01000451H   LINE      CODE     ---       #1276
      01000453H   LINE      CODE     ---       #1280
      01000454H   LINE      CODE     ---       #1281
      01000455H   LINE      CODE     ---       #1282
      01000457H   LINE      CODE     ---       #1284
      01000458H   LINE      CODE     ---       #1285
      01000459H   LINE      CODE     ---       #1286
      0100045AH   LINE      CODE     ---       #1287
      0100045CH   LINE      CODE     ---       #1289
      0100045DH   LINE      CODE     ---       #1290
      0100045EH   LINE      CODE     ---       #1293
      01000460H   LINE      CODE     ---       #1294
      01000461H   LINE      CODE     ---       #1298
      01000462H   LINE      CODE     ---       #1299
      01000463H   LINE      CODE     ---       #1300
      01000464H   LINE      CODE     ---       #1301
      01000466H   LINE      CODE     ---       #1302
      01000467H   LINE      CODE     ---       #1305
      01000468H   LINE      CODE     ---       #1306
      0100046AH   LINE      CODE     ---       #1307
      0100046BH   LINE      CODE     ---       #1308
      0100046CH   LINE      CODE     ---       #1309
      0100046EH   LINE      CODE     ---       #1310
      0100046FH   LINE      CODE     ---       #1311
      01000471H   LINE      CODE     ---       #1312
      01000472H   LINE      CODE     ---       #1313
      01000473H   LINE      CODE     ---       #1314
      01000474H   LINE      CODE     ---       #1315
      01000476H   LINE      CODE     ---       #1316
      01000478H   LINE      CODE     ---       #1317
      01000479H   LINE      CODE     ---       #1318
      0100047AH   LINE      CODE     ---       #1319
      0100047BH   LINE      CODE     ---       #1320
      0100047CH   LINE      CODE     ---       #1321
      0100047DH   LINE      CODE     ---       #1322
      0100047EH   LINE      CODE     ---       #1323
      0100047FH   LINE      CODE     ---       #1324
      01000480H   LINE      CODE     ---       #1334
      01000481H   LINE      CODE     ---       #1336
      01000482H   LINE      CODE     ---       #1337
      01000483H   LINE      CODE     ---       #1338
      01000485H   LINE      CODE     ---       #1340
      01000486H   LINE      CODE     ---       #1341
      01000487H   LINE      CODE     ---       #1342
      01000488H   LINE      CODE     ---       #1343
      01000489H   LINE      CODE     ---       #1346
      0100048AH   LINE      CODE     ---       #1347
LX51 LINKER/LOCATER V4.66.87.0                                                        01/09/2018  16:51:33  PAGE 28


      0100048BH   LINE      CODE     ---       #1348
      0100048CH   LINE      CODE     ---       #1349
      0100048DH   LINE      CODE     ---       #1350
      0100048EH   LINE      CODE     ---       #1351
      0100048FH   LINE      CODE     ---       #1352
      01000490H   LINE      CODE     ---       #1353
      01000491H   LINE      CODE     ---       #1354
      01000492H   LINE      CODE     ---       #1355
      01000494H   LINE      CODE     ---       #1357
      01000498H   LINE      CODE     ---       #1364
      0100049AH   LINE      CODE     ---       #1365
      0100049EH   LINE      CODE     ---       #1373
      010004A0H   LINE      CODE     ---       #1374
      010004A2H   LINE      CODE     ---       #1376
      010004A3H   LINE      CODE     ---       #1377
      010004A5H   LINE      CODE     ---       #1379
      010004A8H   LINE      CODE     ---       #1382
      010004A9H   LINE      CODE     ---       #1383
      010004ABH   LINE      CODE     ---       #1384
      010004ACH   LINE      CODE     ---       #1385
      010004AEH   LINE      CODE     ---       #1386
      010004B0H   LINE      CODE     ---       #1388
      010004B2H   LINE      CODE     ---       #1391
      010004B3H   LINE      CODE     ---       #1392
      010004B4H   LINE      CODE     ---       #1393
      010004B6H   LINE      CODE     ---       #1394
      010004B8H   LINE      CODE     ---       #1396
      010004BCH   LINE      CODE     ---       #1402
      010004BDH   LINE      CODE     ---       #1403
      010004BEH   LINE      CODE     ---       #1404
      010004C0H   LINE      CODE     ---       #1407
      010004C1H   LINE      CODE     ---       #1408
      010004C2H   LINE      CODE     ---       #1409
      010004C3H   LINE      CODE     ---       #1410
      010004C4H   LINE      CODE     ---       #1411
      010004C7H   LINE      CODE     ---       #1417
      010004C9H   LINE      CODE     ---       #1420
      010004CCH   LINE      CODE     ---       #1426
      010004CDH   LINE      CODE     ---       #1427
      010004CEH   LINE      CODE     ---       #1428
      010004D0H   LINE      CODE     ---       #1429
      010004D1H   LINE      CODE     ---       #1430
      010004D3H   LINE      CODE     ---       #1432
      010004D5H   LINE      CODE     ---       #1433
      010004D7H   LINE      CODE     ---       #1437
      010004D9H   LINE      CODE     ---       #1438
      010004DDH   LINE      CODE     ---       #1441
      010004DFH   LINE      CODE     ---       #1443
      010004E4H   LINE      CODE     ---       #1446
      010004E6H   LINE      CODE     ---       #1447
      010004E8H   LINE      CODE     ---       #1448
      010004EBH   LINE      CODE     ---       #1449
      010004EEH   LINE      CODE     ---       #1450
      010004F1H   LINE      CODE     ---       #1451
      010004F2H   LINE      CODE     ---       #1479
      010004F5H   LINE      CODE     ---       #1481
      010004F7H   LINE      CODE     ---       #1482
      010004F9H   LINE      CODE     ---       #1483
      010004FBH   LINE      CODE     ---       #1484
      010004FEH   LINE      CODE     ---       #1485
      010004FFH   LINE      CODE     ---       #1496
      01000501H   LINE      CODE     ---       #1497
LX51 LINKER/LOCATER V4.66.87.0                                                        01/09/2018  16:51:33  PAGE 29


      01000503H   LINE      CODE     ---       #1498
      01000505H   LINE      CODE     ---       #1499
      01000508H   LINE      CODE     ---       #1500
      0100050BH   LINE      CODE     ---       #1501
      0100050DH   LINE      CODE     ---       #1502
      0100050EH   LINE      CODE     ---       #1513
      01000510H   LINE      CODE     ---       #1514
      01000512H   LINE      CODE     ---       #1515
      01000514H   LINE      CODE     ---       #1516
      01000516H   LINE      CODE     ---       #1520
      01000518H   LINE      CODE     ---       #1521
      0100051DH   LINE      CODE     ---       #1527
      01000522H   LINE      CODE     ---       #1530
      01000525H   LINE      CODE     ---       #1535
      01000527H   LINE      CODE     ---       #1538
      0100052CH   LINE      CODE     ---       #1541
      0100052FH   LINE      CODE     ---       #1548
      0100053BH   LINE      CODE     ---       #1549
      01000547H   LINE      CODE     ---       #1550
      0100054AH   LINE      CODE     ---       #1551
      0100054DH   LINE      CODE     ---       #1562
      0100054FH   LINE      CODE     ---       #1563
      01000552H   LINE      CODE     ---       #1564
      01000554H   LINE      CODE     ---       #1565
      01000557H   LINE      CODE     ---       #1567
      0100055AH   LINE      CODE     ---       #1571
      0100055CH   LINE      CODE     ---       #1572
      0100055EH   LINE      CODE     ---       #1573
      01000560H   LINE      CODE     ---       #1574
      01000561H   LINE      CODE     ---       #1585
      01000563H   LINE      CODE     ---       #1586
      01000565H   LINE      CODE     ---       #1589
      01000567H   LINE      CODE     ---       #1590
      01000569H   LINE      CODE     ---       #1593
      0100056BH   LINE      CODE     ---       #1594
      0100056DH   LINE      CODE     ---       #1597
      0100056FH   LINE      CODE     ---       #1598
      01000571H   LINE      CODE     ---       #1601
      01000573H   LINE      CODE     ---       #1602
      01000575H   LINE      CODE     ---       #1605
      01000577H   LINE      CODE     ---       #1606
      01000579H   LINE      CODE     ---       #1609
      0100057BH   LINE      CODE     ---       #1611
      0100057CH   LINE      CODE     ---       #1612
      0100057FH   LINE      CODE     ---       #1613
      01000581H   LINE      CODE     ---       #1614
      01000583H   LINE      CODE     ---       #1615
      01000584H   LINE      CODE     ---       #1628
      01000586H   LINE      CODE     ---       #1629
      01000589H   LINE      CODE     ---       #1631
      0100058BH   LINE      CODE     ---       #1632
      0100058CH   LINE      CODE     ---       #1633
      0100058EH   LINE      CODE     ---       #1635
      01000590H   LINE      CODE     ---       #1636
      01000592H   LINE      CODE     ---       #1638
      01000594H   LINE      CODE     ---       #1639
      01000597H   LINE      CODE     ---       #1640
      01000598H   LINE      CODE     ---       #1641
      0100059BH   LINE      CODE     ---       #1642
      0100059EH   LINE      CODE     ---       #1643
      010005A1H   LINE      CODE     ---       #1644
      010005A2H   LINE      CODE     ---       #1645
LX51 LINKER/LOCATER V4.66.87.0                                                        01/09/2018  16:51:33  PAGE 30


      010005A3H   LINE      CODE     ---       #1646
      010005A5H   LINE      CODE     ---       #1647
      010005A7H   LINE      CODE     ---       #1649
      010005A9H   LINE      CODE     ---       #1651
      010005AAH   LINE      CODE     ---       #1652
      010005ABH   LINE      CODE     ---       #1653
      010005ADH   LINE      CODE     ---       #1654
      010005AFH   LINE      CODE     ---       #1656
      010005B1H   LINE      CODE     ---       #1659
      010005B3H   LINE      CODE     ---       #1660
      010005B4H   LINE      CODE     ---       #1680
      010005B5H   LINE      CODE     ---       #1681
      010005B7H   LINE      CODE     ---       #1682
      010005B9H   LINE      CODE     ---       #1683
      010005BBH   LINE      CODE     ---       #1684
      010005BDH   LINE      CODE     ---       #1686
      010005BFH   LINE      CODE     ---       #1687
      010005C1H   LINE      CODE     ---       #1689
      010005C2H   LINE      CODE     ---       #1690
      010005C4H   LINE      CODE     ---       #1693
      010005C5H   LINE      CODE     ---       #1695
      010005C7H   LINE      CODE     ---       #1697
      010005C9H   LINE      CODE     ---       #1699
      010005CAH   LINE      CODE     ---       #1713
      010005CDH   LINE      CODE     ---       #1714
      010005CEH   LINE      CODE     ---       #1727
      010005D0H   LINE      CODE     ---       #1728
      010005D1H   LINE      CODE     ---       #1729
      010005D3H   LINE      CODE     ---       #1730
      010005D5H   LINE      CODE     ---       #1731
      010005D7H   LINE      CODE     ---       #1734
      010005DAH   LINE      CODE     ---       #1736
      010005DEH   LINE      CODE     ---       #1740
      010005E1H   LINE      CODE     ---       #1741
      010005E2H   LINE      CODE     ---       #1742
      010005E3H   LINE      CODE     ---       #1743
      010005E5H   LINE      CODE     ---       #1744
      010005E6H   LINE      CODE     ---       #1745
      010005E8H   LINE      CODE     ---       #1747
      010005E9H   LINE      CODE     ---       #1748
      010005EBH   LINE      CODE     ---       #1750
      010005EDH   LINE      CODE     ---       #1751
      010005EFH   LINE      CODE     ---       #1752
      010005F1H   LINE      CODE     ---       #1755
      010005F2H   LINE      CODE     ---       #1756
      010005F3H   LINE      CODE     ---       #1757
      010005F5H   LINE      CODE     ---       #1758
      010005F7H   LINE      CODE     ---       #1760
      010005F9H   LINE      CODE     ---       #1761
      010005FBH   LINE      CODE     ---       #1763
      010005FDH   LINE      CODE     ---       #1765
      010005FEH   LINE      CODE     ---       #1766
      01000600H   LINE      CODE     ---       #1769
      01000601H   LINE      CODE     ---       #1770
      01000603H   LINE      CODE     ---       #1771
      01000605H   LINE      CODE     ---       #1774
      01000607H   LINE      CODE     ---       #1776
      01000609H   LINE      CODE     ---       #1777
      0100060AH   LINE      CODE     ---       #1778
      0100060CH   LINE      CODE     ---       #1779
      0100060EH   LINE      CODE     ---       #1781
      01000611H   LINE      CODE     ---       #1783
LX51 LINKER/LOCATER V4.66.87.0                                                        01/09/2018  16:51:33  PAGE 31


      01000612H   LINE      CODE     ---       #1784
      01000614H   LINE      CODE     ---       #1785
      01000616H   LINE      CODE     ---       #1787
      01000619H   LINE      CODE     ---       #1789
      0100061AH   LINE      CODE     ---       #1790
      0100061CH   LINE      CODE     ---       #1791
      0100061EH   LINE      CODE     ---       #1793
      01000621H   LINE      CODE     ---       #1795
      01000622H   LINE      CODE     ---       #1796
      01000624H   LINE      CODE     ---       #1797
      01000626H   LINE      CODE     ---       #1799
      01000629H   LINE      CODE     ---       #1802
      0100062AH   LINE      CODE     ---       #1806
      0100062CH   LINE      CODE     ---       #1807
      0100062EH   LINE      CODE     ---       #1808
      01000630H   LINE      CODE     ---       #1810
      01000632H   LINE      CODE     ---       #1812
      01000634H   LINE      CODE     ---       #1813
      01000635H   LINE      CODE     ---       #1827
      01000637H   LINE      CODE     ---       #1828
      01000639H   LINE      CODE     ---       #1829
      0100063BH   LINE      CODE     ---       #1830
      0100063CH   LINE      CODE     ---       #1831
      0100063EH   LINE      CODE     ---       #1832
      01000640H   LINE      CODE     ---       #1833
      01000641H   LINE      CODE     ---       #1834
      01000643H   LINE      CODE     ---       #1835
      01000644H   LINE      CODE     ---       #1848
      01000647H   LINE      CODE     ---       #1849
      0100064AH   LINE      CODE     ---       #1850
      0100064BH   LINE      CODE     ---       #1866
      0100064DH   LINE      CODE     ---       #1867
      0100064FH   LINE      CODE     ---       #1868
      01000651H   LINE      CODE     ---       #1869
      01000653H   LINE      CODE     ---       #1870
      01000655H   LINE      CODE     ---       #1871
      01000658H   LINE      CODE     ---       #1872
      01000659H   LINE      CODE     ---       #1873
      0100065BH   LINE      CODE     ---       #1874
      0100065DH   LINE      CODE     ---       #1888
      0100065FH   LINE      CODE     ---       #1889
      01000661H   LINE      CODE     ---       #1890
      01000663H   LINE      CODE     ---       #1891
      01000665H   LINE      CODE     ---       #1892
      01000666H   LINE      CODE     ---       #1893
      01000667H   LINE      CODE     ---       #1894
      01000668H   LINE      CODE     ---       #1895
      01000669H   LINE      CODE     ---       #1896
      0100066AH   LINE      CODE     ---       #1897
      0100066BH   LINE      CODE     ---       #1898
      0100066EH   LINE      CODE     ---       #1903
      0100066FH   LINE      CODE     ---       #1904
      01000672H   LINE      CODE     ---       #1905
      01000674H   LINE      CODE     ---       #1907
      01000676H   LINE      CODE     ---       #1910
      01000678H   LINE      CODE     ---       #1911
      0100067AH   LINE      CODE     ---       #1912
      0100067BH   LINE      CODE     ---       #1913
      0100067CH   LINE      CODE     ---       #1914
      0100067DH   LINE      CODE     ---       #1918
      0100067EH   LINE      CODE     ---       #1919
      01000680H   LINE      CODE     ---       #1921
LX51 LINKER/LOCATER V4.66.87.0                                                        01/09/2018  16:51:33  PAGE 32


      01000682H   LINE      CODE     ---       #1922
      01000684H   LINE      CODE     ---       #1923
      01000686H   LINE      CODE     ---       #1926
      01000688H   LINE      CODE     ---       #1927
      0100068AH   LINE      CODE     ---       #1928
      0100068CH   LINE      CODE     ---       #1929
      0100068EH   LINE      CODE     ---       #1930
      01000690H   LINE      CODE     ---       #1931
      01000692H   LINE      CODE     ---       #1932
      01000693H   LINE      CODE     ---       #1933
      01000694H   LINE      CODE     ---       #1934
      01000695H   LINE      CODE     ---       #1935
      01000696H   LINE      CODE     ---       #1936
      01000697H   LINE      CODE     ---       #1937
      01000698H   LINE      CODE     ---       #1938
      01000699H   LINE      CODE     ---       #1941
      0100069AH   LINE      CODE     ---       #1942
      0100069CH   LINE      CODE     ---       #1943
      0100069DH   LINE      CODE     ---       #1944
      0100069EH   LINE      CODE     ---       #1945
      010006A0H   LINE      CODE     ---       #1946
      010006A1H   LINE      CODE     ---       #1947
      010006A2H   LINE      CODE     ---       #1948
      010006A3H   LINE      CODE     ---       #1949
      010006A4H   LINE      CODE     ---       #1950
      010006A6H   LINE      CODE     ---       #1951
      010006A7H   LINE      CODE     ---       #1952
      010006A8H   LINE      CODE     ---       #1953
      010006AAH   LINE      CODE     ---       #1954
      010006ACH   LINE      CODE     ---       #1956
      010006AFH   LINE      CODE     ---       #1957
      010006B2H   LINE      CODE     ---       #1959
      010006B4H   LINE      CODE     ---       #1963
      010006B6H   LINE      CODE     ---       #1964
      010006B8H   LINE      CODE     ---       #1965
      010006BAH   LINE      CODE     ---       #1966
      010006BCH   LINE      CODE     ---       #1967
      010006BEH   LINE      CODE     ---       #1968
      010006C0H   LINE      CODE     ---       #1969
      010006C1H   LINE      CODE     ---       #1970
      010006C2H   LINE      CODE     ---       #1971
      010006C4H   LINE      CODE     ---       #1972
      010006C6H   LINE      CODE     ---       #1974
      010006C7H   LINE      CODE     ---       #1975
      010006C8H   LINE      CODE     ---       #1977
      010006C9H   LINE      CODE     ---       #1978
      010006CAH   LINE      CODE     ---       #1979
      010006CCH   LINE      CODE     ---       #1980
      010006CEH   LINE      CODE     ---       #1982
      010006D1H   LINE      CODE     ---       #1984
      010006D2H   LINE      CODE     ---       #1985
      010006D3H   LINE      CODE     ---       #1988
      010006D4H   LINE      CODE     ---       #1989
      010006D5H   LINE      CODE     ---       #1990
      010006D6H   LINE      CODE     ---       #1991
      010006D7H   LINE      CODE     ---       #1992
      010006D8H   LINE      CODE     ---       #1993
      010006D9H   LINE      CODE     ---       #1994
      010006DAH   LINE      CODE     ---       #1995
      010006DCH   LINE      CODE     ---       #1997
      010006DDH   LINE      CODE     ---       #1998
      010006DEH   LINE      CODE     ---       #1999
LX51 LINKER/LOCATER V4.66.87.0                                                        01/09/2018  16:51:33  PAGE 33


      010006DFH   LINE      CODE     ---       #2000
      010006E0H   LINE      CODE     ---       #2001
      010006E1H   LINE      CODE     ---       #2002
      010006E2H   LINE      CODE     ---       #2003
      010006E3H   LINE      CODE     ---       #2004
      010006E4H   LINE      CODE     ---       #2005
      010006E6H   LINE      CODE     ---       #2008
      010006E7H   LINE      CODE     ---       #2009
      010006E8H   LINE      CODE     ---       #2010
      010006E9H   LINE      CODE     ---       #2011
      010006EAH   LINE      CODE     ---       #2012
      010006EBH   LINE      CODE     ---       #2013
      010006ECH   LINE      CODE     ---       #2014
      010006EDH   LINE      CODE     ---       #2015
      010006EFH   LINE      CODE     ---       #2018
      010006F0H   LINE      CODE     ---       #2019
      010006F1H   LINE      CODE     ---       #2020
      010006F2H   LINE      CODE     ---       #2021
      010006F3H   LINE      CODE     ---       #2022
      010006F4H   LINE      CODE     ---       #2023
      010006F5H   LINE      CODE     ---       #2024
      010006F7H   LINE      CODE     ---       #2025
      010006F9H   LINE      CODE     ---       #2026
      010006FBH   LINE      CODE     ---       #2028
      010006FDH   LINE      CODE     ---       #2029
      010006FFH   LINE      CODE     ---       #2030
      01000701H   LINE      CODE     ---       #2034
      01000702H   LINE      CODE     ---       #2035
      01000703H   LINE      CODE     ---       #2036
      01000705H   LINE      CODE     ---       #2037
      01000707H   LINE      CODE     ---       #2039
      01000709H   LINE      CODE     ---       #2042
      0100070CH   LINE      CODE     ---       #2044
      0100070EH   LINE      CODE     ---       #2045
      01000710H   LINE      CODE     ---       #2048
      01000712H   LINE      CODE     ---       #2049
      01000713H   LINE      CODE     ---       #2050
      01000714H   LINE      CODE     ---       #2051
      01000715H   LINE      CODE     ---       #2052
      01000717H   LINE      CODE     ---       #2053
      01000719H   LINE      CODE     ---       #2054
      0100071BH   LINE      CODE     ---       #2056
      0100071CH   LINE      CODE     ---       #2058
      0100071DH   LINE      CODE     ---       #2059
      0100071FH   LINE      CODE     ---       #2060
      01000721H   LINE      CODE     ---       #2061
      01000723H   LINE      CODE     ---       #2063
      01000724H   LINE      CODE     ---       #2065
      01000725H   LINE      CODE     ---       #2066
      01000726H   LINE      CODE     ---       #2067
      01000728H   LINE      CODE     ---       #2068
      0100072AH   LINE      CODE     ---       #2070
      0100072CH   LINE      CODE     ---       #2074
      0100072EH   LINE      CODE     ---       #2076
      01000730H   LINE      CODE     ---       #2077
      01000731H   LINE      CODE     ---       #2078
      01000733H   LINE      CODE     ---       #2079
      01000734H   LINE      CODE     ---       #2080
      01000736H   LINE      CODE     ---       #2081
      01000737H   LINE      CODE     ---       #2082
      01000739H   LINE      CODE     ---       #2083
      0100073AH   LINE      CODE     ---       #2084
LX51 LINKER/LOCATER V4.66.87.0                                                        01/09/2018  16:51:33  PAGE 34


      0100073CH   LINE      CODE     ---       #2085
      0100073DH   LINE      CODE     ---       #2086
      0100073FH   LINE      CODE     ---       #2087
      01000740H   LINE      CODE     ---       #2088
      01000741H   LINE      CODE     ---       #2090
      01000742H   LINE      CODE     ---       #2091
      01000743H   LINE      CODE     ---       #2092
      01000744H   LINE      CODE     ---       #2093
      01000745H   LINE      CODE     ---       #2094
      01000746H   LINE      CODE     ---       #2095
      01000748H   LINE      CODE     ---       #2096
      01000749H   LINE      CODE     ---       #2097
      0100074BH   LINE      CODE     ---       #2099
      0100074CH   LINE      CODE     ---       #2100
      0100074DH   LINE      CODE     ---       #2101
      0100074FH   LINE      CODE     ---       #2102
      01000750H   LINE      CODE     ---       #2103
      01000752H   LINE      CODE     ---       #2104
      01000754H   LINE      CODE     ---       #2107
      01000756H   LINE      CODE     ---       #2108
      01000757H   LINE      CODE     ---       #2109
      01000758H   LINE      CODE     ---       #2112
      0100075BH   LINE      CODE     ---       #2118
      0100075DH   LINE      CODE     ---       #2119
      0100075FH   LINE      CODE     ---       #2120
      01000760H   LINE      CODE     ---       #2121
      01000761H   LINE      CODE     ---       #2122
      01000762H   LINE      CODE     ---       #2123
      01000763H   LINE      CODE     ---       #2124
      01000764H   LINE      CODE     ---       #2125
      01000766H   LINE      CODE     ---       #2126
      01000767H   LINE      CODE     ---       #2127
      01000768H   LINE      CODE     ---       #2128
      01000769H   LINE      CODE     ---       #2129
      0100076AH   LINE      CODE     ---       #2130
      0100076BH   LINE      CODE     ---       #2131
      0100076CH   LINE      CODE     ---       #2132
      0100076DH   LINE      CODE     ---       #2133
      0100076FH   LINE      CODE     ---       #2134
      01000770H   LINE      CODE     ---       #2135
      01000771H   LINE      CODE     ---       #2136
      01000772H   LINE      CODE     ---       #2137
      01000773H   LINE      CODE     ---       #2138
      01000774H   LINE      CODE     ---       #2139
      01000775H   LINE      CODE     ---       #2140
      01000776H   LINE      CODE     ---       #2141
      01000777H   LINE      CODE     ---       #2142
      01000778H   LINE      CODE     ---       #2143
      01000779H   LINE      CODE     ---       #2144
      0100077AH   LINE      CODE     ---       #2145
      0100077CH   LINE      CODE     ---       #2146
      0100077DH   LINE      CODE     ---       #2147
      0100077FH   LINE      CODE     ---       #2148
      01000781H   LINE      CODE     ---       #2149
      01000782H   LINE      CODE     ---       #2150
      01000783H   LINE      CODE     ---       #2151
      01000785H   LINE      CODE     ---       #2152
      01000787H   LINE      CODE     ---       #2154
      01000789H   LINE      CODE     ---       #2157
      0100078BH   LINE      CODE     ---       #2158
      0100078CH   LINE      CODE     ---       #2159
      0100078DH   LINE      CODE     ---       #2160
LX51 LINKER/LOCATER V4.66.87.0                                                        01/09/2018  16:51:33  PAGE 35


      0100078EH   LINE      CODE     ---       #2161
      01000790H   LINE      CODE     ---       #2162
      01000791H   LINE      CODE     ---       #2163
      01000792H   LINE      CODE     ---       #2164
      01000794H   LINE      CODE     ---       #2165
      01000795H   LINE      CODE     ---       #2166
      01000796H   LINE      CODE     ---       #2167
      01000797H   LINE      CODE     ---       #2168
      01000798H   LINE      CODE     ---       #2169
      01000799H   LINE      CODE     ---       #2170
      0100079AH   LINE      CODE     ---       #2171
      0100079CH   LINE      CODE     ---       #2173
      0100079DH   LINE      CODE     ---       #2174
      0100079FH   LINE      CODE     ---       #2175
      010007A1H   LINE      CODE     ---       #2178
      010007A3H   LINE      CODE     ---       #2181
      010007A5H   LINE      CODE     ---       #2182
      010007A6H   LINE      CODE     ---       #2183
      010007A7H   LINE      CODE     ---       #2197
      010007AAH   LINE      CODE     ---       #2198
      010007ACH   LINE      CODE     ---       #2201
      010007AFH   LINE      CODE     ---       #2202
      010007B2H   LINE      CODE     ---       #2203
      010007B4H   LINE      CODE     ---       #2204
      010007B7H   LINE      CODE     ---       #2217
      010007B8H   LINE      CODE     ---       #2218
      010007B9H   LINE      CODE     ---       #2219
      010007BAH   LINE      CODE     ---       #2220
      010007BBH   LINE      CODE     ---       #2221
      010007BCH   LINE      CODE     ---       #2222
      010007BDH   LINE      CODE     ---       #2223
      010007BEH   LINE      CODE     ---       #2233
      010007C1H   LINE      CODE     ---       #2234
      010007C4H   LINE      CODE     ---       #2236
      010007C5H   LINE      CODE     ---       #2237
      010007C6H   LINE      CODE     ---       #2238
      010007C7H   LINE      CODE     ---       #2239
      010007C8H   LINE      CODE     ---       #2240
      010007C9H   LINE      CODE     ---       #2241
      010007CAH   LINE      CODE     ---       #2242
      010007CBH   LINE      CODE     ---       #2243
      010007CCH   LINE      CODE     ---       #2244
      010007CDH   LINE      CODE     ---       #2245
      010007CEH   LINE      CODE     ---       #2246
      010007CFH   LINE      CODE     ---       #2247
      010007D1H   LINE      CODE     ---       #2248
      010007D3H   LINE      CODE     ---       #2249
      010007D4H   LINE      CODE     ---       #2250
      010007D5H   LINE      CODE     ---       #2251
      010007D7H   LINE      CODE     ---       #2252
      010007D9H   LINE      CODE     ---       #2254
      010007DAH   LINE      CODE     ---       #2255
      010007DDH   LINE      CODE     ---       #2257
      010007DEH   LINE      CODE     ---       #2258
      010007DFH   LINE      CODE     ---       #2259
      010007E0H   LINE      CODE     ---       #2260
      010007E1H   LINE      CODE     ---       #2261
      010007E2H   LINE      CODE     ---       #2262
      010007E3H   LINE      CODE     ---       #2263
      010007E4H   LINE      CODE     ---       #2264
      010007E5H   LINE      CODE     ---       #2265
      010007E6H   LINE      CODE     ---       #2266
LX51 LINKER/LOCATER V4.66.87.0                                                        01/09/2018  16:51:33  PAGE 36


      010007E7H   LINE      CODE     ---       #2267
      010007E9H   LINE      CODE     ---       #2270
      010007EAH   LINE      CODE     ---       #2271
      010007EBH   LINE      CODE     ---       #2272
      010007ECH   LINE      CODE     ---       #2273
      010007EDH   LINE      CODE     ---       #2274
      010007EEH   LINE      CODE     ---       #2275
      010007EFH   LINE      CODE     ---       #2276
      010007F0H   LINE      CODE     ---       #2277
      010007F1H   LINE      CODE     ---       #2278
      010007F3H   LINE      CODE     ---       #2279
      010007F4H   LINE      CODE     ---       #2280
      010007F5H   LINE      CODE     ---       #2281
      010007F7H   LINE      CODE     ---       #2282
      010007F8H   LINE      CODE     ---       #2283
      010007FAH   LINE      CODE     ---       #2284
      010007FCH   LINE      CODE     ---       #2287
      010007FDH   LINE      CODE     ---       #2288
      010007FEH   LINE      CODE     ---       #2289
      01000800H   LINE      CODE     ---       #2290
      01000802H   LINE      CODE     ---       #2293
      01000804H   LINE      CODE     ---       #2294
      01000806H   LINE      CODE     ---       #2295
      01000808H   LINE      CODE     ---       #2296
      0100080AH   LINE      CODE     ---       #2297
      0100080CH   LINE      CODE     ---       #2298
      0100080EH   LINE      CODE     ---       #2299
      01000811H   LINE      CODE     ---       #2302
      01000813H   LINE      CODE     ---       #2303
      01000815H   LINE      CODE     ---       #2304
      01000817H   LINE      CODE     ---       #2305
      01000819H   LINE      CODE     ---       #2306
      0100081BH   LINE      CODE     ---       #2307
      0100081DH   LINE      CODE     ---       #2308
      01000820H   LINE      CODE     ---       #2310
      01000823H   LINE      CODE     ---       #2311
      01000826H   LINE      CODE     ---       #2312
      01000829H   LINE      CODE     ---       #2313
      0100082CH   LINE      CODE     ---       #2314
      0100082FH   LINE      CODE     ---       #2315
      01000832H   LINE      CODE     ---       #2318
      01000835H   LINE      CODE     ---       #2322
      01000836H   LINE      CODE     ---       #2323
      01000837H   LINE      CODE     ---       #2324
      01000838H   LINE      CODE     ---       #2325
      01000839H   LINE      CODE     ---       #2326
      0100083AH   LINE      CODE     ---       #2327
      0100083BH   LINE      CODE     ---       #2328
      0100083DH   LINE      CODE     ---       #2329
      0100083EH   LINE      CODE     ---       #2330
      0100083FH   LINE      CODE     ---       #2331
      01000841H   LINE      CODE     ---       #2332
      01000843H   LINE      CODE     ---       #2334
      01000844H   LINE      CODE     ---       #2335
      01000847H   LINE      CODE     ---       #2337
      01000848H   LINE      CODE     ---       #2338
      01000849H   LINE      CODE     ---       #2339
      0100084AH   LINE      CODE     ---       #2340
      0100084BH   LINE      CODE     ---       #2341
      0100084CH   LINE      CODE     ---       #2342
      0100084EH   LINE      CODE     ---       #2345
      0100084FH   LINE      CODE     ---       #2346
LX51 LINKER/LOCATER V4.66.87.0                                                        01/09/2018  16:51:33  PAGE 37


      01000850H   LINE      CODE     ---       #2347
      01000852H   LINE      CODE     ---       #2348
      01000853H   LINE      CODE     ---       #2349
      01000855H   LINE      CODE     ---       #2352
      01000856H   LINE      CODE     ---       #2353
      01000857H   LINE      CODE     ---       #2354
      01000859H   LINE      CODE     ---       #2355
      0100085BH   LINE      CODE     ---       #2358
      0100085DH   LINE      CODE     ---       #2359
      0100085FH   LINE      CODE     ---       #2360
      01000861H   LINE      CODE     ---       #2361
      01000864H   LINE      CODE     ---       #2364
      01000866H   LINE      CODE     ---       #2365
      01000868H   LINE      CODE     ---       #2366
      0100086AH   LINE      CODE     ---       #2380
      0100086DH   LINE      CODE     ---       #2381
      0100086FH   LINE      CODE     ---       #2383
      01000872H   LINE      CODE     ---       #2385
      01000874H   LINE      CODE     ---       #2386
      01000877H   LINE      CODE     ---       #2387
      01000879H   LINE      CODE     ---       #2388
      0100087BH   LINE      CODE     ---       #2389
      0100087DH   LINE      CODE     ---       #2391
      0100087FH   LINE      CODE     ---       #2392
      01000881H   LINE      CODE     ---       #2393
      01000882H   LINE      CODE     ---       #2394
      01000883H   LINE      CODE     ---       #2395
      01000884H   LINE      CODE     ---       #2396
      01000885H   LINE      CODE     ---       #2397
      01000886H   LINE      CODE     ---       #2398
      01000887H   LINE      CODE     ---       #2399
      01000889H   LINE      CODE     ---       #2402
      0100088AH   LINE      CODE     ---       #2403
      0100088BH   LINE      CODE     ---       #2404
      0100088CH   LINE      CODE     ---       #2405
      0100088DH   LINE      CODE     ---       #2406
      0100088EH   LINE      CODE     ---       #2407
      0100088FH   LINE      CODE     ---       #2409
      01000892H   LINE      CODE     ---       #2411
      01000893H   LINE      CODE     ---       #2412
      01000895H   LINE      CODE     ---       #2413
      01000896H   LINE      CODE     ---       #2416
      01000898H   LINE      CODE     ---       #2417
      0100089BH   LINE      CODE     ---       #2418
      0100089EH   LINE      CODE     ---       #2419
      0100089FH   LINE      CODE     ---       #2420
      010008A0H   LINE      CODE     ---       #2421
      010008A1H   LINE      CODE     ---       #2422
      010008A3H   LINE      CODE     ---       #2423
      010008A4H   LINE      CODE     ---       #2424
      010008A5H   LINE      CODE     ---       #2425
      010008A7H   LINE      CODE     ---       #2426
      010008AAH   LINE      CODE     ---       #2427
      010008ACH   LINE      CODE     ---       #2428
      010008AFH   LINE      CODE     ---       #2429
      010008B1H   LINE      CODE     ---       #2432
      010008B2H   LINE      CODE     ---       #2446
      010008B4H   LINE      CODE     ---       #2447
      010008B7H   LINE      CODE     ---       #2448
      010008BAH   LINE      CODE     ---       #2449
      010008BDH   LINE      CODE     ---       #2450
      010008C0H   LINE      CODE     ---       #2451
LX51 LINKER/LOCATER V4.66.87.0                                                        01/09/2018  16:51:33  PAGE 38


      010008C2H   LINE      CODE     ---       #2454
      010008C4H   LINE      CODE     ---       #2455
      010008C7H   LINE      CODE     ---       #2456
      010008CAH   LINE      CODE     ---       #2457
      010008CDH   LINE      CODE     ---       #2458
      010008D0H   LINE      CODE     ---       #2462
      010008D2H   LINE      CODE     ---       #2463
      010008D4H   LINE      CODE     ---       #2464
      010008D7H   LINE      CODE     ---       #2466
      010008D9H   LINE      CODE     ---       #2467
      010008DBH   LINE      CODE     ---       #2468
      010008DDH   LINE      CODE     ---       #2470
      010008DFH   LINE      CODE     ---       #2472
      010008E1H   LINE      CODE     ---       #2473
      010008E3H   LINE      CODE     ---       #2474
      010008E4H   LINE      CODE     ---       #2475
      010008E5H   LINE      CODE     ---       #2476
      010008E7H   LINE      CODE     ---       #2477
      010008E8H   LINE      CODE     ---       #2478
      010008E9H   LINE      CODE     ---       #2479
      010008EAH   LINE      CODE     ---       #2480
      010008ECH   LINE      CODE     ---       #2481
      010008EEH   LINE      CODE     ---       #2483
      010008F0H   LINE      CODE     ---       #2485
      010008F3H   LINE      CODE     ---       #2487
      010008F5H   LINE      CODE     ---       #2488
      010008F7H   LINE      CODE     ---       #2502
      010008FAH   LINE      CODE     ---       #2504
      010008FCH   LINE      CODE     ---       #2505
      010008FEH   LINE      CODE     ---       #2507
      01000901H   LINE      CODE     ---       #2509
      01000904H   LINE      CODE     ---       #2512
      01000906H   LINE      CODE     ---       #2513
      01000908H   LINE      CODE     ---       #2516
      0100090AH   LINE      CODE     ---       #2518
      0100090CH   LINE      CODE     ---       #2519
      0100090EH   LINE      CODE     ---       #2520
      01000910H   LINE      CODE     ---       #2521
      01000913H   LINE      CODE     ---       #2522
      01000915H   LINE      CODE     ---       #2525
      01000918H   LINE      CODE     ---       #2527
      01000919H   LINE      CODE     ---       #2528
      0100091AH   LINE      CODE     ---       #2529
      0100091BH   LINE      CODE     ---       #2530
      0100091CH   LINE      CODE     ---       #2531
      0100091EH   LINE      CODE     ---       #2532
      0100091FH   LINE      CODE     ---       #2534
      01000921H   LINE      CODE     ---       #2537
      01000924H   LINE      CODE     ---       #2539
      01000925H   LINE      CODE     ---       #2540
      01000926H   LINE      CODE     ---       #2541
      01000927H   LINE      CODE     ---       #2542
      01000928H   LINE      CODE     ---       #2543
      0100092AH   LINE      CODE     ---       #2544
      0100092CH   LINE      CODE     ---       #2546
      0100092EH   LINE      CODE     ---       #2549
      01000930H   LINE      CODE     ---       #2550
      01000933H   LINE      CODE     ---       #2551
      01000936H   LINE      CODE     ---       #2552
      01000939H   LINE      CODE     ---       #2554
      0100093CH   LINE      CODE     ---       #2558
      0100093FH   LINE      CODE     ---       #2561
LX51 LINKER/LOCATER V4.66.87.0                                                        01/09/2018  16:51:33  PAGE 39


      01000942H   LINE      CODE     ---       #2562
      01000944H   LINE      CODE     ---       #2563
      01000947H   LINE      CODE     ---       #2564
      0100094AH   LINE      CODE     ---       #2567
      0100094CH   LINE      CODE     ---       #2568
      0100094EH   LINE      CODE     ---       #2575
      0100094FH   LINE      CODE     ---       #2576
      01000950H   LINE      CODE     ---       #2577
      01000952H   LINE      CODE     ---       #2579
      01000953H   LINE      CODE     ---       #2580
      01000954H   LINE      CODE     ---       #2581
      01000956H   LINE      CODE     ---       #2583
      01000957H   LINE      CODE     ---       #2586
      01000958H   LINE      CODE     ---       #2587
      01000959H   LINE      CODE     ---       #2588
      0100095AH   LINE      CODE     ---       #2589
      0100095DH   LINE      CODE     ---       #2590
      0100095FH   LINE      CODE     ---       #2591
      01000961H   LINE      CODE     ---       #2594
      01000962H   LINE      CODE     ---       #2595
      01000964H   LINE      CODE     ---       #2596
      01000966H   LINE      CODE     ---       #2597
      01000968H   LINE      CODE     ---       #2598
      0100096AH   LINE      CODE     ---       #2600
      0100096DH   LINE      CODE     ---       #2601
      0100096FH   LINE      CODE     ---       #2603
      01000971H   LINE      CODE     ---       #2604
      01000973H   LINE      CODE     ---       #2607
      01000975H   LINE      CODE     ---       #2609
      01000977H   LINE      CODE     ---       #2622
      01000979H   LINE      CODE     ---       #2623
      0100097CH   LINE      CODE     ---       #2624
      0100097FH   LINE      CODE     ---       #2625
      01000982H   LINE      CODE     ---       #2626
      01000985H   LINE      CODE     ---       #2627
      01000988H   LINE      CODE     ---       #2629
      0100098BH   LINE      CODE     ---       #2630
      0100098EH   LINE      CODE     ---       #2631
      01000990H   LINE      CODE     ---       #2632
      01000993H   LINE      CODE     ---       #2633
      01000995H   LINE      CODE     ---       #2646
      01000997H   LINE      CODE     ---       #2647
      01000999H   LINE      CODE     ---       #2648
      0100099BH   LINE      CODE     ---       #2650
      0100099EH   LINE      CODE     ---       #2651
      010009A0H   LINE      CODE     ---       #2652
      010009A2H   LINE      CODE     ---       #2655
      010009A5H   LINE      CODE     ---       #2656
      010009A8H   LINE      CODE     ---       #2657
      010009ABH   LINE      CODE     ---       #2658
      010009ADH   LINE      CODE     ---       #2659
      010009AFH   LINE      CODE     ---       #2660
      010009B2H   LINE      CODE     ---       #2663
      010009B3H   LINE      CODE     ---       #2677
      010009B5H   LINE      CODE     ---       #2678
      010009B8H   LINE      CODE     ---       #2680
      010009BAH   LINE      CODE     ---       #2682
      010009BCH   LINE      CODE     ---       #2683
      010009BFH   LINE      CODE     ---       #2684
      010009C0H   LINE      CODE     ---       #2685
      010009C1H   LINE      CODE     ---       #2686
      010009C3H   LINE      CODE     ---       #2687
LX51 LINKER/LOCATER V4.66.87.0                                                        01/09/2018  16:51:33  PAGE 40


      010009C4H   LINE      CODE     ---       #2688
      010009C6H   LINE      CODE     ---       #2689
      010009C7H   LINE      CODE     ---       #2690
      010009C9H   LINE      CODE     ---       #2691
      010009CAH   LINE      CODE     ---       #2692
      010009CCH   LINE      CODE     ---       #2693
      010009CDH   LINE      CODE     ---       #2694
      010009CFH   LINE      CODE     ---       #2695
      010009D0H   LINE      CODE     ---       #2696
      010009D2H   LINE      CODE     ---       #2697
      010009D3H   LINE      CODE     ---       #2698
      010009D5H   LINE      CODE     ---       #2699
      010009D7H   LINE      CODE     ---       #2701
      010009DAH   LINE      CODE     ---       #2703
      010009DBH   LINE      CODE     ---       #2704
      010009DDH   LINE      CODE     ---       #2705
      010009DFH   LINE      CODE     ---       #2706
      010009E1H   LINE      CODE     ---       #2708
      010009E7H   LINE      CODE     ---       #2709
      010009EAH   LINE      CODE     ---       #2712
      010009EDH   LINE      CODE     ---       #2713
      010009EFH   LINE      CODE     ---       #2716
      010009F2H   LINE      CODE     ---       #2717
      010009F5H   LINE      CODE     ---       #2718
      010009F7H   LINE      CODE     ---       #2719
      010009FAH   LINE      CODE     ---       #2720
      010009FBH   LINE      CODE     ---       #2735
      010009FEH   LINE      CODE     ---       #2737
      01000A00H   LINE      CODE     ---       #2738
      01000A02H   LINE      CODE     ---       #2739
      01000A04H   LINE      CODE     ---       #2740
      01000A07H   LINE      CODE     ---       #2741
      01000A09H   LINE      CODE     ---       #2742
      01000A0CH   LINE      CODE     ---       #2743
      01000A0EH   LINE      CODE     ---       #2746
      01000A10H   LINE      CODE     ---       #2747
      01000A12H   LINE      CODE     ---       #2748
      01000A14H   LINE      CODE     ---       #2749
      01000A17H   LINE      CODE     ---       #2750
      01000A19H   LINE      CODE     ---       #2751
      01000A1CH   LINE      CODE     ---       #2752
      01000A1EH   LINE      CODE     ---       #2758
      01000A21H   LINE      CODE     ---       #2760
      01000A23H   LINE      CODE     ---       #2761
      01000A25H   LINE      CODE     ---       #2762
      01000A28H   LINE      CODE     ---       #2763
      01000A2AH   LINE      CODE     ---       #2764
      01000A2CH   LINE      CODE     ---       #2765
      01000A2FH   LINE      CODE     ---       #2766
      01000A31H   LINE      CODE     ---       #2769
      01000A33H   LINE      CODE     ---       #2770
      01000A35H   LINE      CODE     ---       #2771
      01000A38H   LINE      CODE     ---       #2772
      01000A3AH   LINE      CODE     ---       #2773
      01000A3CH   LINE      CODE     ---       #2774
      01000A3FH   LINE      CODE     ---       #2775
      01000A41H   LINE      CODE     ---       #2781
      01000A44H   LINE      CODE     ---       #2783
      01000A46H   LINE      CODE     ---       #2784
      01000A48H   LINE      CODE     ---       #2785
      01000A4AH   LINE      CODE     ---       #2786
      01000A4DH   LINE      CODE     ---       #2787
LX51 LINKER/LOCATER V4.66.87.0                                                        01/09/2018  16:51:33  PAGE 41


      01000A4FH   LINE      CODE     ---       #2788
      01000A52H   LINE      CODE     ---       #2789
      01000A54H   LINE      CODE     ---       #2792
      01000A56H   LINE      CODE     ---       #2793
      01000A58H   LINE      CODE     ---       #2794
      01000A5AH   LINE      CODE     ---       #2795
      01000A5DH   LINE      CODE     ---       #2796
      01000A5FH   LINE      CODE     ---       #2797
      01000A62H   LINE      CODE     ---       #2798
      01000A64H   LINE      CODE     ---       #2804
      01000A67H   LINE      CODE     ---       #2806
      01000A69H   LINE      CODE     ---       #2807
      01000A6BH   LINE      CODE     ---       #2808
      01000A6EH   LINE      CODE     ---       #2809
      01000A70H   LINE      CODE     ---       #2810
      01000A72H   LINE      CODE     ---       #2811
      01000A75H   LINE      CODE     ---       #2812
      01000A77H   LINE      CODE     ---       #2815
      01000A79H   LINE      CODE     ---       #2816
      01000A7BH   LINE      CODE     ---       #2817
      01000A7EH   LINE      CODE     ---       #2818
      01000A80H   LINE      CODE     ---       #2819
      01000A82H   LINE      CODE     ---       #2820
      01000A85H   LINE      CODE     ---       #2821
      01000A87H   LINE      CODE     ---       #2827
      01000A8AH   LINE      CODE     ---       #2829
      01000A8CH   LINE      CODE     ---       #2830
      01000A8EH   LINE      CODE     ---       #2831
      01000A90H   LINE      CODE     ---       #2832
      01000A93H   LINE      CODE     ---       #2833
      01000A95H   LINE      CODE     ---       #2834
      01000A98H   LINE      CODE     ---       #2835
      01000A9AH   LINE      CODE     ---       #2838
      01000A9CH   LINE      CODE     ---       #2839
      01000A9EH   LINE      CODE     ---       #2840
      01000AA0H   LINE      CODE     ---       #2841
      01000AA3H   LINE      CODE     ---       #2842
      01000AA5H   LINE      CODE     ---       #2843
      01000AA8H   LINE      CODE     ---       #2844
      01000AAAH   LINE      CODE     ---       #2850
      01000AADH   LINE      CODE     ---       #2852
      01000AAFH   LINE      CODE     ---       #2853
      01000AB1H   LINE      CODE     ---       #2854
      01000AB4H   LINE      CODE     ---       #2855
      01000AB6H   LINE      CODE     ---       #2856
      01000AB8H   LINE      CODE     ---       #2857
      01000ABBH   LINE      CODE     ---       #2858
      01000ABDH   LINE      CODE     ---       #2861
      01000ABFH   LINE      CODE     ---       #2862
      01000AC1H   LINE      CODE     ---       #2863
      01000AC4H   LINE      CODE     ---       #2864
      01000AC6H   LINE      CODE     ---       #2865
      01000AC8H   LINE      CODE     ---       #2866
      01000ACBH   LINE      CODE     ---       #2869
      01000ACCH   LINE      CODE     ---       #2880
      01000ACEH   LINE      CODE     ---       #2881
      01000AD0H   LINE      CODE     ---       #2882
      01000AD2H   LINE      CODE     ---       #2885
      01000AD4H   LINE      CODE     ---       #2886
      01000AD6H   LINE      CODE     ---       #2887
      01000AD8H   LINE      CODE     ---       #2890
      01000ADAH   LINE      CODE     ---       #2891
LX51 LINKER/LOCATER V4.66.87.0                                                        01/09/2018  16:51:33  PAGE 42


      01000ADCH   LINE      CODE     ---       #2892
      01000ADEH   LINE      CODE     ---       #2895
      01000AE0H   LINE      CODE     ---       #2896
      01000AE2H   LINE      CODE     ---       #2897
      01000AE4H   LINE      CODE     ---       #2900
      01000AE6H   LINE      CODE     ---       #2901
      01000AE9H   LINE      CODE     ---       #2902
      01000AEAH   LINE      CODE     ---       #2905
      01000AECH   LINE      CODE     ---       #2907
      01000AEDH   LINE      CODE     ---       #2908
      01000AEFH   LINE      CODE     ---       #2909
      01000AF2H   LINE      CODE     ---       #2910
      01000AF4H   LINE      CODE     ---       #2911
      01000AF7H   LINE      CODE     ---       #2912
      01000AF9H   LINE      CODE     ---       #2913
      01000AFCH   LINE      CODE     ---       #2914
      01000AFEH   LINE      CODE     ---       #2915
      01000B01H   LINE      CODE     ---       #2917
      01000B02H   LINE      CODE     ---       #2918
      01000B05H   LINE      CODE     ---       #2919
      01000B07H   LINE      CODE     ---       #2921
      01000B0AH   LINE      CODE     ---       #2922
      01000B0CH   LINE      CODE     ---       #2924
      01000B0EH   LINE      CODE     ---       #2925
      01000B11H   LINE      CODE     ---       #2927
      01000B12H   LINE      CODE     ---       #2928
      01000B15H   LINE      CODE     ---       #2929
      01000B17H   LINE      CODE     ---       #2931
      01000B1AH   LINE      CODE     ---       #2932
      01000B1CH   LINE      CODE     ---       #2934
      01000B1EH   LINE      CODE     ---       #2935
      01000B21H   LINE      CODE     ---       #2936
      01000B23H   LINE      CODE     ---       #2938
      01000B24H   LINE      CODE     ---       #2939
      01000B25H   LINE      CODE     ---       #2941
      01000B28H   LINE      CODE     ---       #2942
      01000B2AH   LINE      CODE     ---       #2943
      01000B2CH   LINE      CODE     ---       #2944
      01000B2EH   LINE      CODE     ---       #2945
      01000B2FH   LINE      CODE     ---       #2958
      01000B35H   LINE      CODE     ---       #2959
      01000B3BH   LINE      CODE     ---       #2960
      01000B3EH   LINE      CODE     ---       #2961
      01000B3FH   LINE      CODE     ---       #2974
      01000B41H   LINE      CODE     ---       #2975
      01000B43H   LINE      CODE     ---       #2976
      01000B44H   LINE      CODE     ---       #2977
      01000B46H   LINE      CODE     ---       #2978
      01000B47H   LINE      CODE     ---       #2979
      01000B49H   LINE      CODE     ---       #2980
      01000B4AH   LINE      CODE     ---       #2981
      01000B4CH   LINE      CODE     ---       #2982
      01000B4DH   LINE      CODE     ---       #2983
      01000B4FH   LINE      CODE     ---       #2984
      01000B50H   LINE      CODE     ---       #2985
      01000B52H   LINE      CODE     ---       #2986
      01000B53H   LINE      CODE     ---       #2987
      01000B55H   LINE      CODE     ---       #2988
      01000B56H   LINE      CODE     ---       #2989
      01000B58H   LINE      CODE     ---       #2990
      01000B59H   LINE      CODE     ---       #2991
      01000B5BH   LINE      CODE     ---       #2993
LX51 LINKER/LOCATER V4.66.87.0                                                        01/09/2018  16:51:33  PAGE 43


      01000B5DH   LINE      CODE     ---       #2994
      01000B5FH   LINE      CODE     ---       #2995
      01000B60H   LINE      CODE     ---       #2996
      01000B62H   LINE      CODE     ---       #2997
      01000B63H   LINE      CODE     ---       #2998
      01000B65H   LINE      CODE     ---       #2999
      01000B66H   LINE      CODE     ---       #3000
      01000B68H   LINE      CODE     ---       #3001
      01000B69H   LINE      CODE     ---       #3002
      01000B6BH   LINE      CODE     ---       #3003
      01000B6CH   LINE      CODE     ---       #3004
      01000B6EH   LINE      CODE     ---       #3005
      01000B6FH   LINE      CODE     ---       #3006
      01000B71H   LINE      CODE     ---       #3007
      01000B72H   LINE      CODE     ---       #3008
      01000B74H   LINE      CODE     ---       #3009
      01000B75H   LINE      CODE     ---       #3010
      01000B77H   LINE      CODE     ---       #3011
      01000B78H   LINE      CODE     ---       #3012
      01000B7AH   LINE      CODE     ---       #3013
      01000B7BH   LINE      CODE     ---       #3014
      01000B7DH   LINE      CODE     ---       #3015
      01000B7EH   LINE      CODE     ---       #3016
      01000B80H   LINE      CODE     ---       #3017
      01000B81H   LINE      CODE     ---       #3018
      01000B83H   LINE      CODE     ---       #3019
      01000B84H   LINE      CODE     ---       #3020
      01000B86H   LINE      CODE     ---       #3021
      01000B87H   LINE      CODE     ---       #3022
      01000B89H   LINE      CODE     ---       #3023
      01000B8AH   LINE      CODE     ---       #3024
      01000B8CH   LINE      CODE     ---       #3025
      01000B8DH   LINE      CODE     ---       #3026
      01000B8FH   LINE      CODE     ---       #3027
      01000B90H   LINE      CODE     ---       #3028
      01000B92H   LINE      CODE     ---       #3029
      01000B93H   LINE      CODE     ---       #3030
      01000B95H   LINE      CODE     ---       #3031
      01000B96H   LINE      CODE     ---       #3032
      01000B98H   LINE      CODE     ---       #3033
      01000B99H   LINE      CODE     ---       #3034
      01000B9BH   LINE      CODE     ---       #3035
      01000B9CH   LINE      CODE     ---       #3036
      01000B9EH   LINE      CODE     ---       #3037
      01000B9FH   LINE      CODE     ---       #3038
      01000BA1H   LINE      CODE     ---       #3039
      01000BA2H   LINE      CODE     ---       #3040
      01000BA4H   LINE      CODE     ---       #3041
      01000BA5H   LINE      CODE     ---       #3042
      01000BA7H   LINE      CODE     ---       #3043
      01000BA8H   LINE      CODE     ---       #3044
      01000BAAH   LINE      CODE     ---       #3045
      01000BABH   LINE      CODE     ---       #3059
      01000BACH   LINE      CODE     ---       #3060
      01000BAFH   LINE      CODE     ---       #3061
      01000BB0H   LINE      CODE     ---       #3062
      01000BB2H   LINE      CODE     ---       #3063
      01000BB3H   LINE      CODE     ---       #3064
      01000BB4H   LINE      CODE     ---       #3065
      01000BB5H   LINE      CODE     ---       #3066
      01000BB6H   LINE      CODE     ---       #3067
      01000BB8H   LINE      CODE     ---       #3068
LX51 LINKER/LOCATER V4.66.87.0                                                        01/09/2018  16:51:33  PAGE 44


      01000BB9H   LINE      CODE     ---       #3069
      01000BBAH   LINE      CODE     ---       #3070
      01000BBBH   LINE      CODE     ---       #3071
      01000BBCH   LINE      CODE     ---       #3072
      01000BBDH   LINE      CODE     ---       #3073
      01000BBEH   LINE      CODE     ---       #3074
      01000BBFH   LINE      CODE     ---       #3075
      01000BC0H   LINE      CODE     ---       #3076
      01000BC1H   LINE      CODE     ---       #3077
      01000BC2H   LINE      CODE     ---       #3078
      01000BC3H   LINE      CODE     ---       #3079
      01000BC4H   LINE      CODE     ---       #3080
      01000BC5H   LINE      CODE     ---       #3081
      01000BC6H   LINE      CODE     ---       #3082
      01000BC8H   LINE      CODE     ---       #3083
      01000BC9H   LINE      CODE     ---       #3093
      01000BCAH   LINE      CODE     ---       #3107
      01000BCCH   LINE      CODE     ---       #3108
      01000BCDH   LINE      CODE     ---       #3109
      01000BCEH   LINE      CODE     ---       #3110
      01000BD0H   LINE      CODE     ---       #3111
      01000BD2H   LINE      CODE     ---       #3112
      01000BD4H   LINE      CODE     ---       #3114
      01000BD6H   LINE      CODE     ---       #3116
      01000BD8H   LINE      CODE     ---       #3117
      01000BD9H   LINE      CODE     ---       #3118
      01000BDCH   LINE      CODE     ---       #3119
      01000BDEH   LINE      CODE     ---       #3120
      01000BE0H   LINE      CODE     ---       #3121
      01000BE2H   LINE      CODE     ---       #3123
      01000BE4H   LINE      CODE     ---       #3124
      01000BE5H   LINE      CODE     ---       #3125
      01000BE6H   LINE      CODE     ---       #3126
      01000BE9H   LINE      CODE     ---       #3127
      01000BEAH   LINE      CODE     ---       #3128
      01000BECH   LINE      CODE     ---       #3129
      01000BEDH   LINE      CODE     ---       #3131
      01000BEFH   LINE      CODE     ---       #3132
      01000BF0H   LINE      CODE     ---       #3133
      01000BF2H   LINE      CODE     ---       #3134
      01000BF3H   LINE      CODE     ---       #3135
      01000BF5H   LINE      CODE     ---       #3136
      01000BF7H   LINE      CODE     ---       #3137
      01000BFAH   LINE      CODE     ---       #3139
      01000BFCH   LINE      CODE     ---       #3140
      01000BFDH   LINE      CODE     ---       #3141
      01000C00H   LINE      CODE     ---       #3143
      01000C03H   LINE      CODE     ---       #3145
      01000C06H   LINE      CODE     ---       #3148
      01000C09H   LINE      CODE     ---       #3150
      01000C0CH   LINE      CODE     ---       #3154
      01000C0EH   LINE      CODE     ---       #3155
      01000C0FH   LINE      CODE     ---       #3156
      01000C10H   LINE      CODE     ---       #3157
      01000C12H   LINE      CODE     ---       #3159
      01000C14H   LINE      CODE     ---       #3161
      01000C16H   LINE      CODE     ---       #3162
      01000C18H   LINE      CODE     ---       #3165
      01000C1AH   LINE      CODE     ---       #3167
      01000C1CH   LINE      CODE     ---       #3168
      01000C1DH   LINE      CODE     ---       #3169
      01000C1FH   LINE      CODE     ---       #3170
LX51 LINKER/LOCATER V4.66.87.0                                                        01/09/2018  16:51:33  PAGE 45


      01000C21H   LINE      CODE     ---       #3171
      01000C23H   LINE      CODE     ---       #3172
      01000C25H   LINE      CODE     ---       #3173
      01000C26H   LINE      CODE     ---       #3174
      01000C28H   LINE      CODE     ---       #3175
      01000C2AH   LINE      CODE     ---       #3176
      01000C2CH   LINE      CODE     ---       #3177
      01000C2EH   LINE      CODE     ---       #3178
      01000C2FH   LINE      CODE     ---       #3179
      01000C31H   LINE      CODE     ---       #3180
      01000C33H   LINE      CODE     ---       #3181
      01000C35H   LINE      CODE     ---       #3182
      01000C37H   LINE      CODE     ---       #3183
      01000C38H   LINE      CODE     ---       #3197
      01000C3BH   LINE      CODE     ---       #3199
      01000C3DH   LINE      CODE     ---       #3200
      01000C3FH   LINE      CODE     ---       #3201
      01000C41H   LINE      CODE     ---       #3202
      01000C43H   LINE      CODE     ---       #3203
      01000C45H   LINE      CODE     ---       #3204
      01000C47H   LINE      CODE     ---       #3205
      01000C49H   LINE      CODE     ---       #3206
      01000C4BH   LINE      CODE     ---       #3207
      01000C4CH   LINE      CODE     ---       #3211
      01000C4FH   LINE      CODE     ---       #3213
      01000C51H   LINE      CODE     ---       #3214
      01000C52H   LINE      CODE     ---       #3215
      01000C53H   LINE      CODE     ---       #3216
      01000C55H   LINE      CODE     ---       #3217
      01000C57H   LINE      CODE     ---       #3218
      01000C58H   LINE      CODE     ---       #3219
      01000C59H   LINE      CODE     ---       #3220
      01000C5BH   LINE      CODE     ---       #3221
      01000C5CH   LINE      CODE     ---       #3222
      01000C5DH   LINE      CODE     ---       #3223
      01000C5EH   LINE      CODE     ---       #3224
      01000C5FH   LINE      CODE     ---       #3225
      01000C60H   LINE      CODE     ---       #3226
      01000C61H   LINE      CODE     ---       #3227
      01000C62H   LINE      CODE     ---       #3228
      01000C63H   LINE      CODE     ---       #3229
      01000C64H   LINE      CODE     ---       #3230
      01000C65H   LINE      CODE     ---       #3231
      01000C66H   LINE      CODE     ---       #3232
      01000C67H   LINE      CODE     ---       #3233
      01000C68H   LINE      CODE     ---       #3234
      01000C69H   LINE      CODE     ---       #3235
      01000C6BH   LINE      CODE     ---       #3236
      01000C6DH   LINE      CODE     ---       #3237
      01000C6FH   LINE      CODE     ---       #3238
      01000C71H   LINE      CODE     ---       #3241
      01000C73H   LINE      CODE     ---       #3242
      01000C76H   LINE      CODE     ---       #3244
      01000C78H   LINE      CODE     ---       #3246
      01000C79H   LINE      CODE     ---       #3247
      01000C7AH   LINE      CODE     ---       #3248
      01000C7CH   LINE      CODE     ---       #3249
      01000C7EH   LINE      CODE     ---       #3250
      01000C7FH   LINE      CODE     ---       #3251
      01000C80H   LINE      CODE     ---       #3252
      01000C82H   LINE      CODE     ---       #3253
      01000C84H   LINE      CODE     ---       #3254
LX51 LINKER/LOCATER V4.66.87.0                                                        01/09/2018  16:51:33  PAGE 46


      01000C87H   LINE      CODE     ---       #3256
      01000C88H   LINE      CODE     ---       #3257
      01000C89H   LINE      CODE     ---       #3258
      01000C8AH   LINE      CODE     ---       #3259
      01000C8BH   LINE      CODE     ---       #3260
      01000C8CH   LINE      CODE     ---       #3261
      01000C8DH   LINE      CODE     ---       #3262
      01000C8EH   LINE      CODE     ---       #3263
      01000C8FH   LINE      CODE     ---       #3264
      01000C90H   LINE      CODE     ---       #3265
      01000C91H   LINE      CODE     ---       #3266
      01000C92H   LINE      CODE     ---       #3267
      01000C93H   LINE      CODE     ---       #3268
      01000C94H   LINE      CODE     ---       #3269
      01000C95H   LINE      CODE     ---       #3270
      01000C97H   LINE      CODE     ---       #3273
      01000C99H   LINE      CODE     ---       #3274
      01000C9BH   LINE      CODE     ---       #3275
      01000C9DH   LINE      CODE     ---       #3276
      01000C9EH   LINE      CODE     ---       #3291
      01000C9FH   LINE      CODE     ---       #3292
      01000CA0H   LINE      CODE     ---       #3293
      01000CA1H   LINE      CODE     ---       #3294
      01000CA2H   LINE      CODE     ---       #3295
      01000CA3H   LINE      CODE     ---       #3296
      01000CA5H   LINE      CODE     ---       #3297
      01000CA6H   LINE      CODE     ---       #3299
      01000CA7H   LINE      CODE     ---       #3300
      01000CA8H   LINE      CODE     ---       #3301
      01000CA9H   LINE      CODE     ---       #3302
      01000CAAH   LINE      CODE     ---       #3303
      01000CABH   LINE      CODE     ---       #3304
      01000CACH   LINE      CODE     ---       #3305
      01000CADH   LINE      CODE     ---       #3307
      01000CAEH   LINE      CODE     ---       #3308
      01000CAFH   LINE      CODE     ---       #3309
      01000CB1H   LINE      CODE     ---       #3310
      01000CB2H   LINE      CODE     ---       #3311
      01000CB4H   LINE      CODE     ---       #3312
      01000CB6H   LINE      CODE     ---       #3314
      01000CB8H   LINE      CODE     ---       #3315
      01000CBAH   LINE      CODE     ---       #3318
      01000CBBH   LINE      CODE     ---       #3319
      01000CBCH   LINE      CODE     ---       #3320
      01000CBEH   LINE      CODE     ---       #3321
      01000CBFH   LINE      CODE     ---       #3322
      01000CC1H   LINE      CODE     ---       #3323
      01000CC3H   LINE      CODE     ---       #3325
      01000CC5H   LINE      CODE     ---       #3326
      01000CC7H   LINE      CODE     ---       #3329
      01000CC9H   LINE      CODE     ---       #3331
      01000CCAH   LINE      CODE     ---       #3332
      01000CCCH   LINE      CODE     ---       #3334
      01000CCDH   LINE      CODE     ---       #3335
      01000CCEH   LINE      CODE     ---       #3336
      01000CD0H   LINE      CODE     ---       #3338
      01000CD1H   LINE      CODE     ---       #3339
      01000CD2H   LINE      CODE     ---       #3340
      01000CD3H   LINE      CODE     ---       #3341
      01000CD4H   LINE      CODE     ---       #3342
      01000CD5H   LINE      CODE     ---       #3343
      01000CD6H   LINE      CODE     ---       #3344
LX51 LINKER/LOCATER V4.66.87.0                                                        01/09/2018  16:51:33  PAGE 47


      01000CD7H   LINE      CODE     ---       #3345
      01000CD9H   LINE      CODE     ---       #3348
      01000CDAH   LINE      CODE     ---       #3349
      01000CDCH   LINE      CODE     ---       #3350
      01000CDDH   LINE      CODE     ---       #3351
      01000CDFH   LINE      CODE     ---       #3352
      01000CE0H   LINE      CODE     ---       #3353
      01000CE2H   LINE      CODE     ---       #3354
      01000CE3H   LINE      CODE     ---       #3355
      01000CE4H   LINE      CODE     ---       #3356
      01000CE6H   LINE      CODE     ---       #3357
      01000CE8H   LINE      CODE     ---       #3359
      01000CE9H   LINE      CODE     ---       #3360
      01000CEAH   LINE      CODE     ---       #3361
      01000CECH   LINE      CODE     ---       #3363
      01000CEDH   LINE      CODE     ---       #3376
      01000CEFH   LINE      CODE     ---       #3377
      01000CF1H   LINE      CODE     ---       #3378
      01000CF4H   LINE      CODE     ---       #3379
      01000CF7H   LINE      CODE     ---       #3380
      01000CF9H   LINE      CODE     ---       #3381
      01000CFBH   LINE      CODE     ---       #3382
      01000CFDH   LINE      CODE     ---       #3384
      01000D00H   LINE      CODE     ---       #3385
      01000D02H   LINE      CODE     ---       #3386
      01000D03H   LINE      CODE     ---       #3387
      01000D04H   LINE      CODE     ---       #3388
      01000D06H   LINE      CODE     ---       #3389
      01000D07H   LINE      CODE     ---       #3390
      01000D08H   LINE      CODE     ---       #3391
      01000D0AH   LINE      CODE     ---       #3393
      01000D0CH   LINE      CODE     ---       #3395
      01000D0DH   LINE      CODE     ---       #3396
      01000D0EH   LINE      CODE     ---       #3397
      01000D0FH   LINE      CODE     ---       #3398
      01000D10H   LINE      CODE     ---       #3399
      01000D11H   LINE      CODE     ---       #3400
      01000D12H   LINE      CODE     ---       #3401
      01000D13H   LINE      CODE     ---       #3402
      01000D15H   LINE      CODE     ---       #3404
      01000D16H   LINE      CODE     ---       #3405
      01000D17H   LINE      CODE     ---       #3406
      01000D19H   LINE      CODE     ---       #3408
      01000D1BH   LINE      CODE     ---       #3410
      01000D1DH   LINE      CODE     ---       #3411
      01000D1FH   LINE      CODE     ---       #3412
      01000D20H   LINE      CODE     ---       #3425
      01000D22H   LINE      CODE     ---       #3426
      01000D23H   LINE      CODE     ---       #3427
      01000D24H   LINE      CODE     ---       #3428
      01000D26H   LINE      CODE     ---       #3430
      01000D28H   LINE      CODE     ---       #3433
      01000D29H   LINE      CODE     ---       #3434
      01000D2BH   LINE      CODE     ---       #3436
      01000D2DH   LINE      CODE     ---       #3439
      01000D2EH   LINE      CODE     ---       #3440
      01000D30H   LINE      CODE     ---       #3442
      01000D32H   LINE      CODE     ---       #3445
      01000D33H   LINE      CODE     ---       #3446
      01000D35H   LINE      CODE     ---       #3448
      01000D37H   LINE      CODE     ---       #3451
      01000D38H   LINE      CODE     ---       #3467
LX51 LINKER/LOCATER V4.66.87.0                                                        01/09/2018  16:51:33  PAGE 48


      01000D3BH   LINE      CODE     ---       #3468
      01000D3EH   LINE      CODE     ---       #3470
      01000D41H   LINE      CODE     ---       #3471
      01000D44H   LINE      CODE     ---       #3473
      01000D47H   LINE      CODE     ---       #3475
      01000D4AH   LINE      CODE     ---       #3476
      01000D4DH   LINE      CODE     ---       #3478
      01000D50H   LINE      CODE     ---       #3480
      01000D52H   LINE      CODE     ---       #3482
      01000D55H   LINE      CODE     ---       #3483
      01000D58H   LINE      CODE     ---       #3484
      01000D5BH   LINE      CODE     ---       #3485
      01000D5EH   LINE      CODE     ---       #3486
      01000D61H   LINE      CODE     ---       #3487
      01000D64H   LINE      CODE     ---       #3488
      01000D67H   LINE      CODE     ---       #3489
      01000D6AH   LINE      CODE     ---       #3490
      01000D6DH   LINE      CODE     ---       #3491
      01000D70H   LINE      CODE     ---       #3492
      01000D73H   LINE      CODE     ---       #3494
      01000D79H   LINE      CODE     ---       #3496
      01000D7BH   LINE      CODE     ---       #3498
      01000D7CH   LINE      CODE     ---       #3499
      01000D7DH   LINE      CODE     ---       #3501
      01000D7EH   LINE      CODE     ---       #3502
      01000D80H   LINE      CODE     ---       #3504
      01000D82H   LINE      CODE     ---       #3506
      01000D85H   LINE      CODE     ---       #3508
      01000D87H   LINE      CODE     ---       #3509
      01000D89H   LINE      CODE     ---       #3511
      01000D8CH   LINE      CODE     ---       #3513
      01000D8EH   LINE      CODE     ---       #3514
      01000D91H   LINE      CODE     ---       #3515
      01000D93H   LINE      CODE     ---       #3516
      01000D96H   LINE      CODE     ---       #3517
      01000D98H   LINE      CODE     ---       #3518
      01000D9BH   LINE      CODE     ---       #3519
      01000D9DH   LINE      CODE     ---       #3520
      01000DA0H   LINE      CODE     ---       #3521
      01000DA2H   LINE      CODE     ---       #3531
      01000DA4H   LINE      CODE     ---       #3533
      01000DA7H   LINE      CODE     ---       #3534
      01000DAAH   LINE      CODE     ---       #3536
      01000DACH   LINE      CODE     ---       #3538
      01000DAEH   LINE      CODE     ---       #3540
      01000DB1H   LINE      CODE     ---       #3541
      01000DB3H   LINE      CODE     ---       #3542
      01000DB5H   LINE      CODE     ---       #3544
      01000DB8H   LINE      CODE     ---       #3548
      01000DBAH   LINE      CODE     ---       #3550
      01000DBCH   LINE      CODE     ---       #3552
      01000DBEH   LINE      CODE     ---       #3553
      01000DC0H   LINE      CODE     ---       #3555
      01000DC2H   LINE      CODE     ---       #3561
      01000DC5H   LINE      CODE     ---       #3562
      01000DC8H   LINE      CODE     ---       #3563
      01000DCBH   LINE      CODE     ---       #3564
      01000DCEH   LINE      CODE     ---       #3565
      01000DD1H   LINE      CODE     ---       #3566
      01000DD4H   LINE      CODE     ---       #3567
      01000DE0H   LINE      CODE     ---       #3568
      01000DE3H   LINE      CODE     ---       #3569
LX51 LINKER/LOCATER V4.66.87.0                                                        01/09/2018  16:51:33  PAGE 49


      01000DE6H   LINE      CODE     ---       #3570
      01000DE9H   LINE      CODE     ---       #3571
      01000DECH   LINE      CODE     ---       #3577
      01000DEFH   LINE      CODE     ---       #3578
      01000DF2H   LINE      CODE     ---       #3580
      01000DF8H   LINE      CODE     ---       #3582
      01000E07H   LINE      CODE     ---       #3583
      01000E0AH   LINE      CODE     ---       #3584
      01000E0CH   LINE      CODE     ---       #3586
      01000E0FH   LINE      CODE     ---       #3588
      01000E11H   LINE      CODE     ---       #3589
      01000E14H   LINE      CODE     ---       #3591
      01000E16H   LINE      CODE     ---       #3592
      01000E18H   LINE      CODE     ---       #3593
      01000E1AH   LINE      CODE     ---       #3594
      01000E1CH   LINE      CODE     ---       #3595
      01000E1FH   LINE      CODE     ---       #3596
      01000E22H   LINE      CODE     ---       #3598
      01000E25H   LINE      CODE     ---       #3599
      01000E28H   LINE      CODE     ---       #3600
      01000E29H   LINE      CODE     ---       #3601
      01000E2BH   LINE      CODE     ---       #3602
      01000E2DH   LINE      CODE     ---       #3603
      01000E2FH   LINE      CODE     ---       #3604
      01000E31H   LINE      CODE     ---       #3607
      01000E33H   LINE      CODE     ---       #3608
      01000E36H   LINE      CODE     ---       #3609
      01000E39H   LINE      CODE     ---       #3610
      01000E3AH   LINE      CODE     ---       #3611
      01000E3CH   LINE      CODE     ---       #3612
      01000E3EH   LINE      CODE     ---       #3613
      01000E40H   LINE      CODE     ---       #3614
      01000E42H   LINE      CODE     ---       #3617
      01000E44H   LINE      CODE     ---       #3618
      01000E46H   LINE      CODE     ---       #3619
      01000E49H   LINE      CODE     ---       #3620
      01000E4CH   LINE      CODE     ---       #3621
      01000E4DH   LINE      CODE     ---       #3622
      01000E4FH   LINE      CODE     ---       #3623
      01000E51H   LINE      CODE     ---       #3624
      01000E53H   LINE      CODE     ---       #3625
      01000E55H   LINE      CODE     ---       #3628
      01000E58H   LINE      CODE     ---       #3629
      01000E5BH   LINE      CODE     ---       #3630
      01000E5EH   LINE      CODE     ---       #3631
      01000E61H   LINE      CODE     ---       #3632
      01000E64H   LINE      CODE     ---       #3633
      01000E67H   LINE      CODE     ---       #3635
      01000E69H   LINE      CODE     ---       #3636
      01000E6BH   LINE      CODE     ---       #3637
      01000E6DH   LINE      CODE     ---       #3642
      01000E70H   LINE      CODE     ---       #3644
      01000E73H   LINE      CODE     ---       #3645
      01000E76H   LINE      CODE     ---       #3647
      01000E78H   LINE      CODE     ---       #3648
      01000E7AH   LINE      CODE     ---       #3649
      01000E7DH   LINE      CODE     ---       #3650
      01000E80H   LINE      CODE     ---       #3651
      01000E83H   LINE      CODE     ---       #3652
      01000E84H   LINE      CODE     ---       #3653
      01000E86H   LINE      CODE     ---       #3654
      01000E88H   LINE      CODE     ---       #3655
LX51 LINKER/LOCATER V4.66.87.0                                                        01/09/2018  16:51:33  PAGE 50


      01000E8BH   LINE      CODE     ---       #3656
      01000E8EH   LINE      CODE     ---       #3657
      01000E90H   LINE      CODE     ---       #3660
      01000E93H   LINE      CODE     ---       #3664
      01000E96H   LINE      CODE     ---       #3666
      01000E99H   LINE      CODE     ---       #3667
      01000E9CH   LINE      CODE     ---       #3669
      01000E9FH   LINE      CODE     ---       #3670
      01000EA2H   LINE      CODE     ---       #3671
      01000EA5H   LINE      CODE     ---       #3672
      01000EA6H   LINE      CODE     ---       #3673
      01000EA8H   LINE      CODE     ---       #3674
      01000EAAH   LINE      CODE     ---       #3675
      01000EADH   LINE      CODE     ---       #3676
      01000EB0H   LINE      CODE     ---       #3677
      01000EB2H   LINE      CODE     ---       #3680
      01000EB5H   LINE      CODE     ---       #3684
      01000EB8H   LINE      CODE     ---       #3686
      01000EBBH   LINE      CODE     ---       #3687
      01000EBEH   LINE      CODE     ---       #3689
      01000EC1H   LINE      CODE     ---       #3690
      01000EC4H   LINE      CODE     ---       #3691
      01000EC7H   LINE      CODE     ---       #3692
      01000EC8H   LINE      CODE     ---       #3693
      01000ECAH   LINE      CODE     ---       #3694
      01000ECCH   LINE      CODE     ---       #3695
      01000ECFH   LINE      CODE     ---       #3696
      01000ED2H   LINE      CODE     ---       #3697
      01000ED4H   LINE      CODE     ---       #3700
      01000ED7H   LINE      CODE     ---       #3701
      01000EDAH   LINE      CODE     ---       #3702
      01000EDDH   LINE      CODE     ---       #3703
      01000EE0H   LINE      CODE     ---       #3705
      01000EE2H   LINE      CODE     ---       #3706
      01000EE4H   LINE      CODE     ---       #3707
      01000EE6H   LINE      CODE     ---       #3709
      01000EE8H   LINE      CODE     ---       #3710
      01000EEAH   LINE      CODE     ---       #3711
      01000EEDH   LINE      CODE     ---       #3712
      01000EF0H   LINE      CODE     ---       #3713
      01000EF1H   LINE      CODE     ---       #3714
      01000EF3H   LINE      CODE     ---       #3715
      01000EF5H   LINE      CODE     ---       #3716
      01000EF7H   LINE      CODE     ---       #3718
      01000EF9H   LINE      CODE     ---       #3722
      01000EFCH   LINE      CODE     ---       #3723
      01000EFFH   LINE      CODE     ---       #3724
      01000F02H   LINE      CODE     ---       #3727
      01000F04H   LINE      CODE     ---       #3728
      01000F06H   LINE      CODE     ---       #3729
      01000F08H   LINE      CODE     ---       #3730
      01000F0AH   LINE      CODE     ---       #3731
      01000F0CH   LINE      CODE     ---       #3732
      01000F0FH   LINE      CODE     ---       #3736
      01000F12H   LINE      CODE     ---       #3737
      01000F15H   LINE      CODE     ---       #3739
      01000F18H   LINE      CODE     ---       #3741
      01000F1BH   LINE      CODE     ---       #3742
      01000F1DH   LINE      CODE     ---       #3743
      01000F1EH   LINE      CODE     ---       #3744
      01000F1FH   LINE      CODE     ---       #3745
      01000F21H   LINE      CODE     ---       #3746
LX51 LINKER/LOCATER V4.66.87.0                                                        01/09/2018  16:51:33  PAGE 51


      01000F23H   LINE      CODE     ---       #3748
      01000F25H   LINE      CODE     ---       #3751
      01000F27H   LINE      CODE     ---       #3752
      01000F28H   LINE      CODE     ---       #3753
      01000F2AH   LINE      CODE     ---       #3754
      01000F2CH   LINE      CODE     ---       #3756
      01000F2EH   LINE      CODE     ---       #3760
      01000F31H   LINE      CODE     ---       #3761
      01000F34H   LINE      CODE     ---       #3763
      01000F36H   LINE      CODE     ---       #3765
      01000F38H   LINE      CODE     ---       #3766
      01000F3AH   LINE      CODE     ---       #3767
      01000F3DH   LINE      CODE     ---       #3768
      01000F3FH   LINE      CODE     ---       #3769
      01000F41H   LINE      CODE     ---       #3770
      01000F43H   LINE      CODE     ---       #3771
      01000F44H   LINE      CODE     ---       #3772
      01000F46H   LINE      CODE     ---       #3773
      01000F48H   LINE      CODE     ---       #3774
      01000F4AH   LINE      CODE     ---       #3775
      01000F4CH   LINE      CODE     ---       #3777
      01000F4FH   LINE      CODE     ---       #3778
      01000F51H   LINE      CODE     ---       #3779
      01000F53H   LINE      CODE     ---       #3780
      01000F55H   LINE      CODE     ---       #3781
      01000F57H   LINE      CODE     ---       #3783
      01000F59H   LINE      CODE     ---       #3784
      01000F5AH   LINE      CODE     ---       #3785
      01000F5BH   LINE      CODE     ---       #3786
      01000F5DH   LINE      CODE     ---       #3787
      01000F5EH   LINE      CODE     ---       #3788
      01000F61H   LINE      CODE     ---       #3789
      01000F64H   LINE      CODE     ---       #3792
      01000F66H   LINE      CODE     ---       #3794
      01000F68H   LINE      CODE     ---       #3795
      01000F6AH   LINE      CODE     ---       #3796
      01000F6DH   LINE      CODE     ---       #3797
      01000F6FH   LINE      CODE     ---       #3798
      01000F71H   LINE      CODE     ---       #3799
      01000F73H   LINE      CODE     ---       #3800
      01000F74H   LINE      CODE     ---       #3801
      01000F76H   LINE      CODE     ---       #3802
      01000F78H   LINE      CODE     ---       #3803
      01000F7AH   LINE      CODE     ---       #3804
      01000F7CH   LINE      CODE     ---       #3806
      01000F7FH   LINE      CODE     ---       #3807
      01000F81H   LINE      CODE     ---       #3808
      01000F83H   LINE      CODE     ---       #3809
      01000F86H   LINE      CODE     ---       #3810
      01000F88H   LINE      CODE     ---       #3811
      01000F8AH   LINE      CODE     ---       #3812
      01000F8CH   LINE      CODE     ---       #3814
      01000F8EH   LINE      CODE     ---       #3815
      01000F8FH   LINE      CODE     ---       #3816
      01000F91H   LINE      CODE     ---       #3817
      01000F93H   LINE      CODE     ---       #3818
      01000F94H   LINE      CODE     ---       #3819
      01000F95H   LINE      CODE     ---       #3820
      01000F97H   LINE      CODE     ---       #3821
      01000F98H   LINE      CODE     ---       #3822
      01000F99H   LINE      CODE     ---       #3823
      01000F9BH   LINE      CODE     ---       #3824
LX51 LINKER/LOCATER V4.66.87.0                                                        01/09/2018  16:51:33  PAGE 52


      01000F9DH   LINE      CODE     ---       #3825
      01000F9EH   LINE      CODE     ---       #3826
      01000FA0H   LINE      CODE     ---       #3829
      01000FA1H   LINE      CODE     ---       #3830
      01000FA3H   LINE      CODE     ---       #3831
      01000FA5H   LINE      CODE     ---       #3832
      01000FA6H   LINE      CODE     ---       #3835
      01000FA9H   LINE      CODE     ---       #3836
      01000FACH   LINE      CODE     ---       #3837
      01000FAFH   LINE      CODE     ---       #3840
      01000FB2H   LINE      CODE     ---       #3841
      01000FB4H   LINE      CODE     ---       #3842
      01000FB7H   LINE      CODE     ---       #3846
      01000FBAH   LINE      CODE     ---       #3847
      01000FBDH   LINE      CODE     ---       #3848
      01000FC0H   LINE      CODE     ---       #3849
      01000FC1H   LINE      CODE     ---       #3850
      01000FC3H   LINE      CODE     ---       #3851
      01000FC5H   LINE      CODE     ---       #3852
      01000FC7H   LINE      CODE     ---       #3854
      01000FC9H   LINE      CODE     ---       #3858
      01000FCBH   LINE      CODE     ---       #3859
      01000FCDH   LINE      CODE     ---       #3860
      01000FCFH   LINE      CODE     ---       #3861
      01000FD1H   LINE      CODE     ---       #3862
      01000FD3H   LINE      CODE     ---       #3863
      01000FD6H   LINE      CODE     ---       #3866
      01000FD9H   LINE      CODE     ---       #3870
      01000FDAH   LINE      CODE     ---       #3871
      01000FDCH   LINE      CODE     ---       #3872
      01000FDEH   LINE      CODE     ---       #3874
      01000FE0H   LINE      CODE     ---       #3875
      01000FE2H   LINE      CODE     ---       #3876
      01000FE3H   LINE      CODE     ---       #3877
      01000FE5H   LINE      CODE     ---       #3879
      01000FE7H   LINE      CODE     ---       #3880
      01000FE9H   LINE      CODE     ---       #3881
      01000FEAH   LINE      CODE     ---       #3882
      01000FECH   LINE      CODE     ---       #3883
      01000FEDH   LINE      CODE     ---       #3884
      01000FEFH   LINE      CODE     ---       #3886
      01000FF1H   LINE      CODE     ---       #3887
      01000FF2H   LINE      CODE     ---       #3888
      01000FF4H   LINE      CODE     ---       #3890
      01000FF6H   LINE      CODE     ---       #3891
      01000FF7H   LINE      CODE     ---       #3892
      01000FF9H   LINE      CODE     ---       #3894
      01000FFBH   LINE      CODE     ---       #3895
      01000FFCH   LINE      CODE     ---       #3896
      01000FFEH   LINE      CODE     ---       #3898
      01001001H   LINE      CODE     ---       #3901
      01001002H   LINE      CODE     ---       #3902
      01001004H   LINE      CODE     ---       #3903
      01001005H   LINE      CODE     ---       #3904
      01001007H   LINE      CODE     ---       #3906
      0100100AH   LINE      CODE     ---       #3907
      0100100DH   LINE      CODE     ---       #3908
      0100100FH   LINE      CODE     ---       #3909
      01001012H   LINE      CODE     ---       #3910
      01001014H   LINE      CODE     ---       #3911
      01001016H   LINE      CODE     ---       #3912
      01001018H   LINE      CODE     ---       #3913
LX51 LINKER/LOCATER V4.66.87.0                                                        01/09/2018  16:51:33  PAGE 53


      0100101BH   LINE      CODE     ---       #3914
      0100101DH   LINE      CODE     ---       #3915
      0100101FH   LINE      CODE     ---       #3916
      01001021H   LINE      CODE     ---       #3917
      01001024H   LINE      CODE     ---       #3920
      01001027H   LINE      CODE     ---       #3921
      01001029H   LINE      CODE     ---       #3922
      0100102BH   LINE      CODE     ---       #3924
      0100102EH   LINE      CODE     ---       #3927
      0100102FH   LINE      CODE     ---       #3928
      01001031H   LINE      CODE     ---       #3929
      01001033H   LINE      CODE     ---       #3930
      01001035H   LINE      CODE     ---       #3932
      01001036H   LINE      CODE     ---       #3933
      01001038H   LINE      CODE     ---       #3934
      0100103AH   LINE      CODE     ---       #3935
      0100103CH   LINE      CODE     ---       #3937
      0100103FH   LINE      CODE     ---       #3940
      01001042H   LINE      CODE     ---       #3941
      01001044H   LINE      CODE     ---       #3942
      01001046H   LINE      CODE     ---       #3943
      01001049H   LINE      CODE     ---       #3945
      0100104CH   LINE      CODE     ---       #3946
      0100104FH   LINE      CODE     ---       #3947
      01001052H   LINE      CODE     ---       #3950
      01001053H   LINE      CODE     ---       #3951
      01001055H   LINE      CODE     ---       #3952
      01001057H   LINE      CODE     ---       #3953
      01001059H   LINE      CODE     ---       #3955
      0100105BH   LINE      CODE     ---       #3956
      0100105EH   LINE      CODE     ---       #3957
      01001060H   LINE      CODE     ---       #3958
      01001062H   LINE      CODE     ---       #3959
      01001065H   LINE      CODE     ---       #3960
      01001067H   LINE      CODE     ---       #3961
      01001069H   LINE      CODE     ---       #3962
      0100106BH   LINE      CODE     ---       #3963
      0100106EH   LINE      CODE     ---       #3964
      01001070H   LINE      CODE     ---       #3967
      01001071H   LINE      CODE     ---       #3968
      01001073H   LINE      CODE     ---       #3969
      01001075H   LINE      CODE     ---       #3970
      01001077H   LINE      CODE     ---       #3972
      01001079H   LINE      CODE     ---       #3973
      0100107CH   LINE      CODE     ---       #3974
      0100107EH   LINE      CODE     ---       #3975
      01001080H   LINE      CODE     ---       #3976
      01001083H   LINE      CODE     ---       #3977
      01001085H   LINE      CODE     ---       #3978
      01001087H   LINE      CODE     ---       #3979
      01001089H   LINE      CODE     ---       #3980
      0100108CH   LINE      CODE     ---       #3981
      0100108EH   LINE      CODE     ---       #3984
      0100108FH   LINE      CODE     ---       #3985
      01001091H   LINE      CODE     ---       #3986
      01001093H   LINE      CODE     ---       #3987
      01001095H   LINE      CODE     ---       #3989
      01001097H   LINE      CODE     ---       #3990
      0100109AH   LINE      CODE     ---       #3991
      0100109CH   LINE      CODE     ---       #3992
      0100109EH   LINE      CODE     ---       #3993
      010010A1H   LINE      CODE     ---       #3994
LX51 LINKER/LOCATER V4.66.87.0                                                        01/09/2018  16:51:33  PAGE 54


      010010A3H   LINE      CODE     ---       #3995
      010010A5H   LINE      CODE     ---       #3996
      010010A7H   LINE      CODE     ---       #3997
      010010AAH   LINE      CODE     ---       #3998
      010010ACH   LINE      CODE     ---       #4001
      010010ADH   LINE      CODE     ---       #4002
      010010AFH   LINE      CODE     ---       #4003
      010010B1H   LINE      CODE     ---       #4004
      010010B3H   LINE      CODE     ---       #4006
      010010B5H   LINE      CODE     ---       #4007
      010010B8H   LINE      CODE     ---       #4008
      010010BAH   LINE      CODE     ---       #4009
      010010BCH   LINE      CODE     ---       #4010
      010010BFH   LINE      CODE     ---       #4011
      010010C1H   LINE      CODE     ---       #4012
      010010C3H   LINE      CODE     ---       #4013
      010010C5H   LINE      CODE     ---       #4014
      010010C8H   LINE      CODE     ---       #4015
      010010CAH   LINE      CODE     ---       #4018
      010010CBH   LINE      CODE     ---       #4019
      010010CDH   LINE      CODE     ---       #4020
      010010CFH   LINE      CODE     ---       #4021
      010010D1H   LINE      CODE     ---       #4023
      010010D3H   LINE      CODE     ---       #4024
      010010D6H   LINE      CODE     ---       #4025
      010010D8H   LINE      CODE     ---       #4026
      010010DAH   LINE      CODE     ---       #4027
      010010DDH   LINE      CODE     ---       #4028
      010010DFH   LINE      CODE     ---       #4029
      010010E1H   LINE      CODE     ---       #4030
      010010E3H   LINE      CODE     ---       #4031
      010010E6H   LINE      CODE     ---       #4032
      010010E8H   LINE      CODE     ---       #4035
      010010E9H   LINE      CODE     ---       #4036
      010010EBH   LINE      CODE     ---       #4037
      010010EDH   LINE      CODE     ---       #4038
      010010EFH   LINE      CODE     ---       #4040
      010010F0H   LINE      CODE     ---       #4041
      010010F2H   LINE      CODE     ---       #4042
      010010F4H   LINE      CODE     ---       #4043
      010010F6H   LINE      CODE     ---       #4044
      010010F8H   LINE      CODE     ---       #4046
      010010FAH   LINE      CODE     ---       #4047
      010010FDH   LINE      CODE     ---       #4048
      010010FFH   LINE      CODE     ---       #4049
      01001101H   LINE      CODE     ---       #4050
      01001102H   LINE      CODE     ---       #4051
      01001104H   LINE      CODE     ---       #4052
      01001106H   LINE      CODE     ---       #4053
      01001108H   LINE      CODE     ---       #4056
      01001109H   LINE      CODE     ---       #4057
      0100110BH   LINE      CODE     ---       #4058
      0100110DH   LINE      CODE     ---       #4059
      0100110FH   LINE      CODE     ---       #4061
      01001110H   LINE      CODE     ---       #4062
      01001112H   LINE      CODE     ---       #4063
      01001114H   LINE      CODE     ---       #4064
      01001116H   LINE      CODE     ---       #4065
      01001118H   LINE      CODE     ---       #4067
      0100111AH   LINE      CODE     ---       #4068
      0100111DH   LINE      CODE     ---       #4069
      0100111FH   LINE      CODE     ---       #4070
LX51 LINKER/LOCATER V4.66.87.0                                                        01/09/2018  16:51:33  PAGE 55


      01001121H   LINE      CODE     ---       #4071
      01001122H   LINE      CODE     ---       #4072
      01001124H   LINE      CODE     ---       #4073
      01001126H   LINE      CODE     ---       #4074
      01001128H   LINE      CODE     ---       #4077
      01001129H   LINE      CODE     ---       #4078
      0100112BH   LINE      CODE     ---       #4079
      0100112DH   LINE      CODE     ---       #4080
      0100112FH   LINE      CODE     ---       #4082
      01001130H   LINE      CODE     ---       #4083
      01001132H   LINE      CODE     ---       #4084
      01001134H   LINE      CODE     ---       #4085
      01001136H   LINE      CODE     ---       #4086
      01001138H   LINE      CODE     ---       #4088
      0100113BH   LINE      CODE     ---       #4090
      0100113CH   LINE      CODE     ---       #4091
      0100113EH   LINE      CODE     ---       #4092
      0100113FH   LINE      CODE     ---       #4093
      01001141H   LINE      CODE     ---       #4094
      01001142H   LINE      CODE     ---       #4095
      01001144H   LINE      CODE     ---       #4096
      01001146H   LINE      CODE     ---       #4099
      01001147H   LINE      CODE     ---       #4100
      01001149H   LINE      CODE     ---       #4101
      0100114BH   LINE      CODE     ---       #4102
      0100114DH   LINE      CODE     ---       #4104
      0100114EH   LINE      CODE     ---       #4105
      01001150H   LINE      CODE     ---       #4106
      01001152H   LINE      CODE     ---       #4107
      01001154H   LINE      CODE     ---       #4108
      01001156H   LINE      CODE     ---       #4110
      01001159H   LINE      CODE     ---       #4112
      0100115BH   LINE      CODE     ---       #4113
      0100115CH   LINE      CODE     ---       #4114
      0100115EH   LINE      CODE     ---       #4115
      0100115FH   LINE      CODE     ---       #4116
      01001161H   LINE      CODE     ---       #4117
      01001163H   LINE      CODE     ---       #4120
      01001164H   LINE      CODE     ---       #4121
      01001166H   LINE      CODE     ---       #4122
      01001168H   LINE      CODE     ---       #4123
      0100116AH   LINE      CODE     ---       #4125
      0100116BH   LINE      CODE     ---       #4126
      0100116DH   LINE      CODE     ---       #4127
      0100116FH   LINE      CODE     ---       #4128
      01001171H   LINE      CODE     ---       #4129
      01001173H   LINE      CODE     ---       #4131
      01001175H   LINE      CODE     ---       #4132
      01001178H   LINE      CODE     ---       #4133
      0100117AH   LINE      CODE     ---       #4134
      0100117BH   LINE      CODE     ---       #4135
      0100117DH   LINE      CODE     ---       #4136
      0100117FH   LINE      CODE     ---       #4137
      01001180H   LINE      CODE     ---       #4138
      01001181H   LINE      CODE     ---       #4139
      01001183H   LINE      CODE     ---       #4140
      01001185H   LINE      CODE     ---       #4141
      01001187H   LINE      CODE     ---       #4142
      01001189H   LINE      CODE     ---       #4143
      0100118BH   LINE      CODE     ---       #4144
      0100118DH   LINE      CODE     ---       #4145
      0100118FH   LINE      CODE     ---       #4148
LX51 LINKER/LOCATER V4.66.87.0                                                        01/09/2018  16:51:33  PAGE 56


      01001190H   LINE      CODE     ---       #4149
      01001192H   LINE      CODE     ---       #4150
      01001194H   LINE      CODE     ---       #4151
      01001196H   LINE      CODE     ---       #4153
      01001197H   LINE      CODE     ---       #4154
      01001199H   LINE      CODE     ---       #4155
      0100119BH   LINE      CODE     ---       #4156
      0100119DH   LINE      CODE     ---       #4158
      0100119FH   LINE      CODE     ---       #4159
      010011A2H   LINE      CODE     ---       #4160
      010011A4H   LINE      CODE     ---       #4161
      010011A5H   LINE      CODE     ---       #4162
      010011A7H   LINE      CODE     ---       #4163
      010011A8H   LINE      CODE     ---       #4164
      010011ABH   LINE      CODE     ---       #4165
      010011ADH   LINE      CODE     ---       #4166
      010011B0H   LINE      CODE     ---       #4167
      010011B2H   LINE      CODE     ---       #4168
      010011B5H   LINE      CODE     ---       #4169
      010011B7H   LINE      CODE     ---       #4170
      010011BAH   LINE      CODE     ---       #4171
      010011BCH   LINE      CODE     ---       #4172
      010011BEH   LINE      CODE     ---       #4173
      010011BFH   LINE      CODE     ---       #4174
      010011C0H   LINE      CODE     ---       #4175
      010011C2H   LINE      CODE     ---       #4176
      010011C4H   LINE      CODE     ---       #4177
      010011C6H   LINE      CODE     ---       #4178
      010011C8H   LINE      CODE     ---       #4179
      010011CAH   LINE      CODE     ---       #4180
      010011CCH   LINE      CODE     ---       #4181
      010011CEH   LINE      CODE     ---       #4184
      010011CFH   LINE      CODE     ---       #4185
      010011D1H   LINE      CODE     ---       #4186
      010011D3H   LINE      CODE     ---       #4187
      010011D5H   LINE      CODE     ---       #4189
      010011D8H   LINE      CODE     ---       #4190
      010011DBH   LINE      CODE     ---       #4191
      010011DCH   LINE      CODE     ---       #4192
      010011DEH   LINE      CODE     ---       #4193
      010011E0H   LINE      CODE     ---       #4194
      010011E2H   LINE      CODE     ---       #4196
      010011E4H   LINE      CODE     ---       #4197
      010011E6H   LINE      CODE     ---       #4200
      010011E9H   LINE      CODE     ---       #4201
      010011ECH   LINE      CODE     ---       #4204
      010011EFH   LINE      CODE     ---       #4205
      010011F2H   LINE      CODE     ---       #4206
      010011F4H   LINE      CODE     ---       #4214
      010011F6H   LINE      CODE     ---       #4215
      010011F9H   LINE      CODE     ---       #4216
      010011FAH   LINE      CODE     ---       #4217
      010011FCH   LINE      CODE     ---       #4218
      010011FDH   LINE      CODE     ---       #4219
      010011FFH   LINE      CODE     ---       #4220
      01001201H   LINE      CODE     ---       #4221
      01001203H   LINE      CODE     ---       #4222
      01001205H   LINE      CODE     ---       #4226
      01001208H   LINE      CODE     ---       #4227
      0100120BH   LINE      CODE     ---       #4228
      0100120EH   LINE      CODE     ---       #4230
      01001211H   LINE      CODE     ---       #4231
LX51 LINKER/LOCATER V4.66.87.0                                                        01/09/2018  16:51:33  PAGE 57


      01001215H   LINE      CODE     ---       #4232
      01001216H   LINE      CODE     ---       #4233
      01001218H   LINE      CODE     ---       #4235
      01001219H   LINE      CODE     ---       #4237
      0100121BH   LINE      CODE     ---       #4238
      0100121EH   LINE      CODE     ---       #4239
      01001221H   LINE      CODE     ---       #4241
      01001223H   LINE      CODE     ---       #4242
      01001226H   LINE      CODE     ---       #4243
      01001229H   LINE      CODE     ---       #4244
      0100122CH   LINE      CODE     ---       #4245
      0100122EH   LINE      CODE     ---       #4250
      01001231H   LINE      CODE     ---       #4252
      01001233H   LINE      CODE     ---       #4253
      01001236H   LINE      CODE     ---       #4254
      01001238H   LINE      CODE     ---       #4257
      0100123AH   LINE      CODE     ---       #4258
      0100123DH   LINE      CODE     ---       #4259
      01001240H   LINE      CODE     ---       #4260
      01001243H   LINE      CODE     ---       #4261
      01001246H   LINE      CODE     ---       #4262
      01001249H   LINE      CODE     ---       #4263
      0100124CH   LINE      CODE     ---       #4264
      0100124FH   LINE      CODE     ---       #4265
      01001252H   LINE      CODE     ---       #4278
      01001255H   LINE      CODE     ---       #4281
      01001258H   LINE      CODE     ---       #4282
      0100125BH   LINE      CODE     ---       #4283
      0100125EH   LINE      CODE     ---       #4291
      01001261H   LINE      CODE     ---       #4294
      01001264H   LINE      CODE     ---       #4295
      01001267H   LINE      CODE     ---       #4296
      0100126AH   LINE      CODE     ---       #4297
      0100126DH   LINE      CODE     ---       #4298
      01001270H   LINE      CODE     ---       #4299
      01001273H   LINE      CODE     ---       #4300
      01001276H   LINE      CODE     ---       #4308
      01001279H   LINE      CODE     ---       #4311
      0100127CH   LINE      CODE     ---       #4312
      0100127FH   LINE      CODE     ---       #4313
      01001282H   LINE      CODE     ---       #4321
      01001285H   LINE      CODE     ---       #4324
      01001288H   LINE      CODE     ---       #4325
      0100128BH   LINE      CODE     ---       #4326
      0100128EH   LINE      CODE     ---       #4334
      01001291H   LINE      CODE     ---       #4337
      01001294H   LINE      CODE     ---       #4338
      01001297H   LINE      CODE     ---       #4339
      0100129AH   LINE      CODE     ---       #4347
      0100129DH   LINE      CODE     ---       #4348
      010012A0H   LINE      CODE     ---       #4351
      010012A3H   LINE      CODE     ---       #4352
      010012A6H   LINE      CODE     ---       #4353
      010012A9H   LINE      CODE     ---       #4354
      010012ACH   LINE      CODE     ---       #4360
      010012AFH   LINE      CODE     ---       #4363
      010012B2H   LINE      CODE     ---       #4365
      010012B4H   LINE      CODE     ---       #4366
      010012B6H   LINE      CODE     ---       #4367
      010012B7H   LINE      CODE     ---       #4368
      010012B9H   LINE      CODE     ---       #4369
      010012BAH   LINE      CODE     ---       #4370
LX51 LINKER/LOCATER V4.66.87.0                                                        01/09/2018  16:51:33  PAGE 58


      010012BCH   LINE      CODE     ---       #4372
      010012BEH   LINE      CODE     ---       #4373
      010012C0H   LINE      CODE     ---       #4374
      010012C2H   LINE      CODE     ---       #4375
      010012C5H   LINE      CODE     ---       #4376
      010012C8H   LINE      CODE     ---       #4377
      010012CAH   LINE      CODE     ---       #4380
      010012CBH   LINE      CODE     ---       #4381
      010012CDH   LINE      CODE     ---       #4382
      010012CFH   LINE      CODE     ---       #4383
      010012D1H   LINE      CODE     ---       #4385
      010012D4H   LINE      CODE     ---       #4387
      010012D6H   LINE      CODE     ---       #4392
      010012D9H   LINE      CODE     ---       #4393
      010012DCH   LINE      CODE     ---       #4396
      010012DEH   LINE      CODE     ---       #4397
      010012DFH   LINE      CODE     ---       #4399
      010012E1H   LINE      CODE     ---       #4401
      010012E3H   LINE      CODE     ---       #4402
      010012E5H   LINE      CODE     ---       #4403
      010012E7H   LINE      CODE     ---       #4406
      010012E9H   LINE      CODE     ---       #4408
      010012ECH   LINE      CODE     ---       #4410
      010012EDH   LINE      CODE     ---       #4411
      010012EFH   LINE      CODE     ---       #4412
      010012F1H   LINE      CODE     ---       #4413
      010012F3H   LINE      CODE     ---       #4416
      010012F6H   LINE      CODE     ---       #4418
      010012F8H   LINE      CODE     ---       #4422
      010012FBH   LINE      CODE     ---       #4424
      010012FEH   LINE      CODE     ---       #4426
      01001300H   LINE      CODE     ---       #4427
      01001302H   LINE      CODE     ---       #4428
      01001303H   LINE      CODE     ---       #4429
      01001305H   LINE      CODE     ---       #4431
      01001307H   LINE      CODE     ---       #4433
      01001308H   LINE      CODE     ---       #4434
      0100130AH   LINE      CODE     ---       #4435
      0100130BH   LINE      CODE     ---       #4436
      0100130DH   LINE      CODE     ---       #4439
      0100130FH   LINE      CODE     ---       #4440
      01001311H   LINE      CODE     ---       #4443
      01001314H   LINE      CODE     ---       #4445
      01001317H   LINE      CODE     ---       #4446
      0100131AH   LINE      CODE     ---       #4447
      0100131CH   LINE      CODE     ---       #4450
      0100131FH   LINE      CODE     ---       #4451
      01001321H   LINE      CODE     ---       #4454
      01001324H   LINE      CODE     ---       #4456
      01001326H   LINE      CODE     ---       #4457
      01001329H   LINE      CODE     ---       #4458
      0100132BH   LINE      CODE     ---       #4461
      0100132DH   LINE      CODE     ---       #4462
      01001330H   LINE      CODE     ---       #4464
      01001333H   LINE      CODE     ---       #4465
      01001335H   LINE      CODE     ---       #4468
      01001336H   LINE      CODE     ---       #4469
      01001338H   LINE      CODE     ---       #4470
      01001339H   LINE      CODE     ---       #4471
      0100133BH   LINE      CODE     ---       #4472
      0100133EH   LINE      CODE     ---       #4474
      01001341H   LINE      CODE     ---       #4476
LX51 LINKER/LOCATER V4.66.87.0                                                        01/09/2018  16:51:33  PAGE 59


      01001343H   LINE      CODE     ---       #4477
      01001345H   LINE      CODE     ---       #4478
      01001348H   LINE      CODE     ---       #4479
      0100134AH   LINE      CODE     ---       #4480
      0100134CH   LINE      CODE     ---       #4481
      0100134FH   LINE      CODE     ---       #4482
      01001352H   LINE      CODE     ---       #4483
      01001354H   LINE      CODE     ---       #4486
      01001356H   LINE      CODE     ---       #4487
      01001358H   LINE      CODE     ---       #4488
      0100135AH   LINE      CODE     ---       #4489
      0100135CH   LINE      CODE     ---       #4492
      0100135FH   LINE      CODE     ---       #4495
      01001361H   LINE      CODE     ---       #4496
      01001364H   LINE      CODE     ---       #4497
      01001367H   LINE      CODE     ---       #4498
      0100136AH   LINE      CODE     ---       #4502
      0100136CH   LINE      CODE     ---       #4503
      0100136FH   LINE      CODE     ---       #4504
      01001372H   LINE      CODE     ---       #4505
      01001374H   LINE      CODE     ---       #4506
      01001375H   LINE      CODE     ---       #4507
      01001377H   LINE      CODE     ---       #4509
      01001379H   LINE      CODE     ---       #4510
      0100137BH   LINE      CODE     ---       #4511
      0100137DH   LINE      CODE     ---       #4514
      0100137EH   LINE      CODE     ---       #4515
      01001380H   LINE      CODE     ---       #4516
      01001382H   LINE      CODE     ---       #4517
      01001384H   LINE      CODE     ---       #4518
      01001387H   LINE      CODE     ---       #4521
      ---         BLOCKEND  ---      ---       LVL=0

      0100138AH   BLOCK     CODE     NEAR LAB  LVL=0
      0100138AH   LINE      CODE     ---       #42
      0100138DH   LINE      CODE     ---       #43
      0100138FH   LINE      CODE     ---       #44
      01001391H   LINE      CODE     ---       #45
      01001393H   LINE      CODE     ---       #46
      01001396H   LINE      CODE     ---       #47
      01001397H   LINE      CODE     ---       #48
      01001399H   LINE      CODE     ---       #49
      0100139BH   LINE      CODE     ---       #50
      0100139EH   LINE      CODE     ---       #51
      010013A0H   LINE      CODE     ---       #55
      010013A3H   LINE      CODE     ---       #56
      010013A6H   LINE      CODE     ---       #57
      010013A9H   LINE      CODE     ---       #58
      010013ABH   LINE      CODE     ---       #59
      010013AEH   LINE      CODE     ---       #60
      010013B1H   LINE      CODE     ---       #61
      010013B3H   LINE      CODE     ---       #65
      010013B6H   LINE      CODE     ---       #66
      010013B8H   LINE      CODE     ---       #67
      010013BAH   LINE      CODE     ---       #69
      010013BCH   LINE      CODE     ---       #70
      010013BDH   LINE      CODE     ---       #71
      010013BEH   LINE      CODE     ---       #72
      010013C0H   LINE      CODE     ---       #74
      010013C3H   LINE      CODE     ---       #75
      010013C5H   LINE      CODE     ---       #76
      010013C7H   LINE      CODE     ---       #78
LX51 LINKER/LOCATER V4.66.87.0                                                        01/09/2018  16:51:33  PAGE 60


      010013C9H   LINE      CODE     ---       #79
      010013CAH   LINE      CODE     ---       #80
      010013CBH   LINE      CODE     ---       #81
      010013CDH   LINE      CODE     ---       #83
      010013D0H   LINE      CODE     ---       #86
      010013D1H   LINE      CODE     ---       #97
      010013D3H   LINE      CODE     ---       #98
      010013D5H   LINE      CODE     ---       #99
      010013D7H   LINE      CODE     ---       #101
      010013DAH   LINE      CODE     ---       #102
      010013DCH   LINE      CODE     ---       #103
      010013DEH   LINE      CODE     ---       #105
      010013DFH   LINE      CODE     ---       #106
      010013E1H   LINE      CODE     ---       #107
      010013E3H   LINE      CODE     ---       #109
      010013E4H   LINE      CODE     ---       #110
      010013E6H   LINE      CODE     ---       #111
      010013E8H   LINE      CODE     ---       #114
      010013EBH   LINE      CODE     ---       #115
      010013EDH   LINE      CODE     ---       #116
      010013EFH   LINE      CODE     ---       #118
      010013F1H   LINE      CODE     ---       #119
      010013F2H   LINE      CODE     ---       #120
      010013F3H   LINE      CODE     ---       #121
      010013F5H   LINE      CODE     ---       #123
      010013F8H   LINE      CODE     ---       #124
      010013FAH   LINE      CODE     ---       #125
      010013FCH   LINE      CODE     ---       #127
      010013FEH   LINE      CODE     ---       #128
      010013FFH   LINE      CODE     ---       #129
      01001400H   LINE      CODE     ---       #130
      01001402H   LINE      CODE     ---       #132
      01001404H   LINE      CODE     ---       #133
      01001406H   LINE      CODE     ---       #134
      01001409H   LINE      CODE     ---       #135
      0100140AH   LINE      CODE     ---       #148
      0100140BH   LINE      CODE     ---       #149
      0100140CH   LINE      CODE     ---       #150
      0100140DH   LINE      CODE     ---       #151
      0100140EH   LINE      CODE     ---       #163
      0100140FH   LINE      CODE     ---       #165
      01001412H   LINE      CODE     ---       #166
      01001415H   LINE      CODE     ---       #167
      01001416H   LINE      CODE     ---       #168
      01001417H   LINE      CODE     ---       #169
      01001419H   LINE      CODE     ---       #170
      0100141BH   LINE      CODE     ---       #171
      0100141DH   LINE      CODE     ---       #173
      0100141EH   LINE      CODE     ---       #175
      0100141FH   LINE      CODE     ---       #176
      01001422H   LINE      CODE     ---       #177
      01001425H   LINE      CODE     ---       #178
      01001426H   LINE      CODE     ---       #179
      01001429H   LINE      CODE     ---       #180
      0100142AH   LINE      CODE     ---       #191
      0100142DH   LINE      CODE     ---       #192
      01001430H   LINE      CODE     ---       #193
      01001433H   LINE      CODE     ---       #194
      01001436H   LINE      CODE     ---       #195
      01001439H   LINE      CODE     ---       #196
      0100143AH   LINE      CODE     ---       #197
      0100143DH   LINE      CODE     ---       #198
LX51 LINKER/LOCATER V4.66.87.0                                                        01/09/2018  16:51:33  PAGE 61


      0100143EH   LINE      CODE     ---       #209
      01001441H   LINE      CODE     ---       #210
      01001443H   LINE      CODE     ---       #211
      01001445H   LINE      CODE     ---       #213
      01001448H   LINE      CODE     ---       #214
      0100144AH   LINE      CODE     ---       #215
      0100144CH   LINE      CODE     ---       #216
      0100144DH   LINE      CODE     ---       #227
      0100144FH   LINE      CODE     ---       #228
      01001451H   LINE      CODE     ---       #229
      01001453H   LINE      CODE     ---       #230
      01001456H   LINE      CODE     ---       #232
      01001458H   LINE      CODE     ---       #233
      0100145AH   LINE      CODE     ---       #234
      0100145BH   LINE      CODE     ---       #235
      0100145CH   LINE      CODE     ---       #236
      0100145DH   LINE      CODE     ---       #237
      0100145FH   LINE      CODE     ---       #238
      01001460H   LINE      CODE     ---       #249
      01001462H   LINE      CODE     ---       #250
      01001464H   LINE      CODE     ---       #251
      01001467H   LINE      CODE     ---       #253
      01001468H   LINE      CODE     ---       #254
      0100146AH   LINE      CODE     ---       #255
      0100146BH   LINE      CODE     ---       #256
      0100146CH   LINE      CODE     ---       #257
      0100146EH   LINE      CODE     ---       #258
      0100146FH   LINE      CODE     ---       #269
      01001471H   LINE      CODE     ---       #271
      01001474H   LINE      CODE     ---       #272
      01001476H   LINE      CODE     ---       #273
      01001477H   LINE      CODE     ---       #284
      01001479H   LINE      CODE     ---       #285
      0100147CH   LINE      CODE     ---       #286
      0100147FH   LINE      CODE     ---       #287
      01001482H   LINE      CODE     ---       #288
      01001485H   LINE      CODE     ---       #289
      01001488H   LINE      CODE     ---       #290
      0100148BH   LINE      CODE     ---       #291
      0100148EH   LINE      CODE     ---       #292
      01001491H   LINE      CODE     ---       #293
      01001494H   LINE      CODE     ---       #294
      01001497H   LINE      CODE     ---       #295
      0100149AH   LINE      CODE     ---       #296
      0100149DH   LINE      CODE     ---       #297
      010014A0H   LINE      CODE     ---       #298
      010014A3H   LINE      CODE     ---       #299
      010014A5H   LINE      CODE     ---       #300
      010014A6H   LINE      CODE     ---       #311
      010014A8H   LINE      CODE     ---       #312
      010014ABH   LINE      CODE     ---       #313
      010014AEH   LINE      CODE     ---       #314
      010014B1H   LINE      CODE     ---       #315
      010014B4H   LINE      CODE     ---       #316
      010014B7H   LINE      CODE     ---       #317
      010014BAH   LINE      CODE     ---       #318
      010014BDH   LINE      CODE     ---       #319
      010014C0H   LINE      CODE     ---       #320
      010014C3H   LINE      CODE     ---       #321
      010014C6H   LINE      CODE     ---       #322
      010014C9H   LINE      CODE     ---       #323
      010014CCH   LINE      CODE     ---       #324
LX51 LINKER/LOCATER V4.66.87.0                                                        01/09/2018  16:51:33  PAGE 62


      010014CFH   LINE      CODE     ---       #325
      010014D2H   LINE      CODE     ---       #326
      010014D4H   LINE      CODE     ---       #327
      ---         BLOCKEND  ---      ---       LVL=0

      01001C00H   BLOCK     CODE     NEAR LAB  LVL=0
      01001C00H   LINE      CODE     ---       #45
      01001C02H   LINE      CODE     ---       #47
      01001C04H   LINE      CODE     ---       #49
      01001C07H   LINE      CODE     ---       #50
      01001C0AH   LINE      CODE     ---       #52
      01001C0DH   LINE      CODE     ---       #54
      01001C10H   LINE      CODE     ---       #56
      01001C13H   LINE      CODE     ---       #57
      01001C16H   LINE      CODE     ---       #58
      01001C19H   LINE      CODE     ---       #59
      01001C1BH   LINE      CODE     ---       #61
      01001C1EH   LINE      CODE     ---       #62
      01001C21H   LINE      CODE     ---       #64
      01001C24H   LINE      CODE     ---       #65
      01001C27H   LINE      CODE     ---       #66
      01001C29H   LINE      CODE     ---       #67
      01001C2CH   LINE      CODE     ---       #68
      01001C2FH   LINE      CODE     ---       #70
      01001C31H   LINE      CODE     ---       #73
      01001C33H   LINE      CODE     ---       #74
      01001C35H   LINE      CODE     ---       #75
      01001C37H   LINE      CODE     ---       #76
      01001C3AH   LINE      CODE     ---       #77
      01001C3DH   LINE      CODE     ---       #78
      01001C40H   LINE      CODE     ---       #79
      01001C42H   LINE      CODE     ---       #80
      01001C45H   LINE      CODE     ---       #81
      01001C48H   LINE      CODE     ---       #84
      01001C4BH   LINE      CODE     ---       #85
      01001C4DH   LINE      CODE     ---       #88
      01001C50H   LINE      CODE     ---       #89
      01001C52H   LINE      CODE     ---       #90
      01001C54H   LINE      CODE     ---       #91
      01001C56H   LINE      CODE     ---       #93
      01001C58H   LINE      CODE     ---       #95
      01001C5BH   LINE      CODE     ---       #96
      01001C5DH   LINE      CODE     ---       #97
      01001C5FH   LINE      CODE     ---       #98
      01001C61H   LINE      CODE     ---       #100
      01001C63H   LINE      CODE     ---       #102
      01001C65H   LINE      CODE     ---       #103
      01001C66H   LINE      CODE     ---       #104
      01001C67H   LINE      CODE     ---       #105
      01001C68H   LINE      CODE     ---       #106
      01001C69H   LINE      CODE     ---       #107
      01001C6AH   LINE      CODE     ---       #108
      01001C6CH   LINE      CODE     ---       #109
      01001C6EH   LINE      CODE     ---       #110
      01001C70H   LINE      CODE     ---       #113
      01001C72H   LINE      CODE     ---       #115
      01001C74H   LINE      CODE     ---       #116
      01001C76H   LINE      CODE     ---       #117
      01001C78H   LINE      CODE     ---       #120
      01001C7AH   LINE      CODE     ---       #121
      01001C7BH   LINE      CODE     ---       #122
      01001C7CH   LINE      CODE     ---       #123
LX51 LINKER/LOCATER V4.66.87.0                                                        01/09/2018  16:51:33  PAGE 63


      01001C7DH   LINE      CODE     ---       #124
      01001C7EH   LINE      CODE     ---       #125
      01001C80H   LINE      CODE     ---       #126
      01001C82H   LINE      CODE     ---       #133
      01001C84H   LINE      CODE     ---       #134
      01001C86H   LINE      CODE     ---       #135
      01001C89H   LINE      CODE     ---       #136
      01001C8CH   LINE      CODE     ---       #137
      01001C8EH   LINE      CODE     ---       #138
      01001C8FH   LINE      CODE     ---       #139
      01001C90H   LINE      CODE     ---       #140
      01001C91H   LINE      CODE     ---       #141
      01001C92H   LINE      CODE     ---       #142
      01001C93H   LINE      CODE     ---       #143
      01001C94H   LINE      CODE     ---       #144
      01001C96H   LINE      CODE     ---       #145
      01001C98H   LINE      CODE     ---       #147
      01001C9AH   LINE      CODE     ---       #148
      01001C9CH   LINE      CODE     ---       #149
      01001C9EH   LINE      CODE     ---       #150
      01001C9FH   LINE      CODE     ---       #151
      01001CA2H   LINE      CODE     ---       #153
      01001CA4H   LINE      CODE     ---       #154
      01001CA6H   LINE      CODE     ---       #156
      01001CA8H   LINE      CODE     ---       #157
      01001CAAH   LINE      CODE     ---       #158
      01001CACH   LINE      CODE     ---       #159
      01001CADH   LINE      CODE     ---       #160
      01001CAEH   LINE      CODE     ---       #161
      01001CB0H   LINE      CODE     ---       #162
      01001CB2H   LINE      CODE     ---       #163
      01001CB4H   LINE      CODE     ---       #165
      01001CB7H   LINE      CODE     ---       #168
      01001CB8H   LINE      CODE     ---       #169
      01001CBAH   LINE      CODE     ---       #170
      01001CBDH   LINE      CODE     ---       #171
      01001CC0H   LINE      CODE     ---       #172
      01001CC3H   LINE      CODE     ---       #173
      01001CC6H   LINE      CODE     ---       #174
      01001CC9H   LINE      CODE     ---       #175
      01001CCBH   LINE      CODE     ---       #178
      01001CCDH   LINE      CODE     ---       #179
      01001CCFH   LINE      CODE     ---       #180
      01001CD0H   LINE      CODE     ---       #181
      01001CD1H   LINE      CODE     ---       #182
      01001CD3H   LINE      CODE     ---       #183
      01001CD5H   LINE      CODE     ---       #184
      01001CD7H   LINE      CODE     ---       #186
      01001CD9H   LINE      CODE     ---       #187
      01001CDAH   LINE      CODE     ---       #188
      01001CDBH   LINE      CODE     ---       #189
      01001CDDH   LINE      CODE     ---       #191
      01001CDEH   LINE      CODE     ---       #192
      01001CE0H   LINE      CODE     ---       #194
      01001CE1H   LINE      CODE     ---       #195
      01001CE2H   LINE      CODE     ---       #196
      01001CE4H   LINE      CODE     ---       #197
      01001CE6H   LINE      CODE     ---       #200
      01001CE7H   LINE      CODE     ---       #201
      01001CE9H   LINE      CODE     ---       #202
      01001CEBH   LINE      CODE     ---       #203
      01001CEDH   LINE      CODE     ---       #204
LX51 LINKER/LOCATER V4.66.87.0                                                        01/09/2018  16:51:33  PAGE 64


      01001CEEH   LINE      CODE     ---       #205
      01001CF0H   LINE      CODE     ---       #206
      01001CF2H   LINE      CODE     ---       #207
      01001CF4H   LINE      CODE     ---       #208
      01001CF6H   LINE      CODE     ---       #209
      01001CF8H   LINE      CODE     ---       #210
      01001CFBH   LINE      CODE     ---       #213
      01001CFEH   LINE      CODE     ---       #214
      01001D01H   LINE      CODE     ---       #215
      01001D04H   LINE      CODE     ---       #216
      01001D07H   LINE      CODE     ---       #217
      01001D08H   LINE      CODE     ---       #218
      01001D0BH   LINE      CODE     ---       #221
      01001D0DH   LINE      CODE     ---       #222
      01001D0FH   LINE      CODE     ---       #223
      01001D10H   LINE      CODE     ---       #224
      01001D11H   LINE      CODE     ---       #225
      01001D14H   LINE      CODE     ---       #226
      01001D17H   LINE      CODE     ---       #227
      01001D19H   LINE      CODE     ---       #228
      01001D1BH   LINE      CODE     ---       #229
      01001D1DH   LINE      CODE     ---       #232
      01001D1EH   LINE      CODE     ---       #233
      01001D20H   LINE      CODE     ---       #234
      01001D22H   LINE      CODE     ---       #235
      01001D24H   LINE      CODE     ---       #237
      01001D25H   LINE      CODE     ---       #238
      01001D27H   LINE      CODE     ---       #240
      01001D28H   LINE      CODE     ---       #241
      01001D2BH   LINE      CODE     ---       #242
      01001D2EH   LINE      CODE     ---       #243
      01001D2FH   LINE      CODE     ---       #244
      01001D30H   LINE      CODE     ---       #245
      01001D32H   LINE      CODE     ---       #247
      01001D35H   LINE      CODE     ---       #248
      01001D37H   LINE      CODE     ---       #251
      01001D39H   LINE      CODE     ---       #252
      01001D3CH   LINE      CODE     ---       #254
      01001D3DH   LINE      CODE     ---       #255
      01001D3EH   LINE      CODE     ---       #256
      01001D3FH   LINE      CODE     ---       #257
      01001D40H   LINE      CODE     ---       #258
      01001D42H   LINE      CODE     ---       #259
      01001D44H   LINE      CODE     ---       #261
      01001D46H   LINE      CODE     ---       #262
      01001D48H   LINE      CODE     ---       #264
      01001D4AH   LINE      CODE     ---       #270
      01001D4CH   LINE      CODE     ---       #271
      01001D4EH   LINE      CODE     ---       #272
      01001D50H   LINE      CODE     ---       #273
      01001D51H   LINE      CODE     ---       #274
      01001D52H   LINE      CODE     ---       #275
      01001D53H   LINE      CODE     ---       #276
      01001D55H   LINE      CODE     ---       #277
      01001D58H   LINE      CODE     ---       #278
      01001D59H   LINE      CODE     ---       #279
      01001D5BH   LINE      CODE     ---       #280
      01001D5CH   LINE      CODE     ---       #281
      01001D5EH   LINE      CODE     ---       #282
      01001D60H   LINE      CODE     ---       #283
      01001D61H   LINE      CODE     ---       #284
      01001D63H   LINE      CODE     ---       #285
LX51 LINKER/LOCATER V4.66.87.0                                                        01/09/2018  16:51:33  PAGE 65


      01001D65H   LINE      CODE     ---       #287
      01001D68H   LINE      CODE     ---       #288
      01001D6BH   LINE      CODE     ---       #290
      01001D6EH   LINE      CODE     ---       #294
      01001D70H   LINE      CODE     ---       #295
      01001D72H   LINE      CODE     ---       #296
      01001D75H   LINE      CODE     ---       #297
      01001D76H   LINE      CODE     ---       #298
      01001D77H   LINE      CODE     ---       #299
      01001D7AH   LINE      CODE     ---       #300
      01001D7CH   LINE      CODE     ---       #301
      01001D7FH   LINE      CODE     ---       #302
      01001D81H   LINE      CODE     ---       #303
      01001D83H   LINE      CODE     ---       #304
      01001D84H   LINE      CODE     ---       #305
      01001D85H   LINE      CODE     ---       #306
      01001D87H   LINE      CODE     ---       #308
      01001D89H   LINE      CODE     ---       #310
      01001D8CH   LINE      CODE     ---       #312
      01001D8DH   LINE      CODE     ---       #316
      01001D8FH   LINE      CODE     ---       #317
      01001D90H   LINE      CODE     ---       #318
      01001D91H   LINE      CODE     ---       #319
      01001D94H   LINE      CODE     ---       #320
      01001D96H   LINE      CODE     ---       #322
      01001D99H   LINE      CODE     ---       #323
      01001D9BH   LINE      CODE     ---       #325
      01001D9EH   LINE      CODE     ---       #326
      01001DA0H   LINE      CODE     ---       #327
      01001DA2H   LINE      CODE     ---       #328
      01001DA3H   LINE      CODE     ---       #329
      01001DA4H   LINE      CODE     ---       #330
      01001DA5H   LINE      CODE     ---       #331
      01001DA6H   LINE      CODE     ---       #332
      01001DA7H   LINE      CODE     ---       #333
      01001DA8H   LINE      CODE     ---       #334
      01001DA9H   LINE      CODE     ---       #335
      01001DABH   LINE      CODE     ---       #336
      01001DADH   LINE      CODE     ---       #337
      01001DAEH   LINE      CODE     ---       #338
      01001DAFH   LINE      CODE     ---       #339
      01001DB0H   LINE      CODE     ---       #340
      01001DB3H   LINE      CODE     ---       #341
      01001DB5H   LINE      CODE     ---       #343
      01001DB6H   LINE      CODE     ---       #344
      01001DB9H   LINE      CODE     ---       #345
      01001DBCH   LINE      CODE     ---       #347
      01001DBDH   LINE      CODE     ---       #348
      01001DBFH   LINE      CODE     ---       #349
      01001DC0H   LINE      CODE     ---       #350
      01001DC2H   LINE      CODE     ---       #351
      01001DC4H   LINE      CODE     ---       #352
      01001DC5H   LINE      CODE     ---       #353
      01001DC7H   LINE      CODE     ---       #354
      01001DC9H   LINE      CODE     ---       #356
      01001DCCH   LINE      CODE     ---       #357
      01001DCFH   LINE      CODE     ---       #359
      01001DD2H   LINE      CODE     ---       #361
      01001DD4H   LINE      CODE     ---       #362
      01001DD6H   LINE      CODE     ---       #363
      01001DD8H   LINE      CODE     ---       #364
      01001DDAH   LINE      CODE     ---       #365
LX51 LINKER/LOCATER V4.66.87.0                                                        01/09/2018  16:51:33  PAGE 66


      01001DDBH   LINE      CODE     ---       #369
      01001DDDH   LINE      CODE     ---       #370
      01001DDFH   LINE      CODE     ---       #371
      01001DE0H   LINE      CODE     ---       #372
      01001DE1H   LINE      CODE     ---       #373
      01001DE3H   LINE      CODE     ---       #374
      01001DE5H   LINE      CODE     ---       #376
      01001DE7H   LINE      CODE     ---       #377
      ---         BLOCKEND  ---      ---       LVL=0

      010019FDH   BLOCK     CODE     NEAR LAB  LVL=0
      010019FDH   LINE      CODE     ---       #4534
      ---         BLOCKEND  ---      ---       LVL=0



*** WARNING L30: MEMORY SPACE OVERLAP
    SEG:     ?DT?BLHELI_S?17
    FROM:    I:000020H   
    TO:      I:000028H   

Program Size: data=177.0 xdata=0 const=0 code=5821
LX51 RUN COMPLETE.  1 WARNING(S),  0 ERROR(S)
